
mosin_os-53c02c9c4e0bf7b9.25wkdx1xvgh6s0hm.rcgu.o:
00000000 t 
00000000 t 
00000002 t 
00000000 t 
00000000 t 
00000004 t 
00000000 t 
00000000 t 
0000001c t 
00000000 t 
00000000 t 
00000002 t 
00000000 N 
00000041 N 
0000004c N 
0000005f N 
00000068 N 
00000072 N 
00000076 N 
000000a1 N 
000000a6 N 
000000aa N 
000000ad N 
000000b0 N 
000000b3 N 
000000b8 N 
000000be N 
000000c5 N 
000000cd N 
000000d7 N 
000000de N 
000000e1 N 
000000e5 N 
000000ec N 
00000100 N 
0000010f N 
00000115 N 
00000117 N 
00000129 N 
0000012f N 
00000134 N 
0000013a N 
00000142 N 
00000146 N 
0000014e N 
00000156 N 
0000015d N 
00000163 N 
00000177 N 
00000183 N 
00000188 N 
00000190 N 
00000197 N 
0000019c N 
000001a3 N 
000001ac N 
000001b6 N 
000001bd N 
000001c2 N 
000001ce N 
000001d6 N 
000001df N 
000001e4 N 
000001e7 N 
000001eb N 
000001f4 N 
000001fb N 
00000200 N 
00000205 N 
0000020b N 
00000211 N 
0000021b N 
0000021e N 
00000224 N 
0000022e N 
00000236 N 
0000023c N 
00000242 N 
0000024d N 
00000256 N 
00000279 N 
00000298 N 
0000029a N 
0000029f N 
000002c6 N 
000002cb N 
000002d1 N 
000002d7 N 
000002da N 
000002e9 N 
000002f0 N 
000002f4 N 
000002fd N 
00000309 N 
00000322 N 
00000327 N 
00000338 N 
00000342 N 
00000350 N 
00000354 N 
0000035f N 
00000366 N 
0000036c N 
00000370 N 
00000374 N 
0000037c N 
00000393 N 
000003b7 N 
000003d3 N 
000003dd N 
000003f7 N 
00000455 N 
00000460 N 
0000047d N 
00000496 N 
000004a0 N 
000004b6 N 
000004d4 N 
000004dd N 
000004e2 N 
000004e7 N 
000004eb N 
000004f4 N 
000004fe N 
00000000 N 
00000000 N 
00000000 T abort
00000000 N .Lline_table_start0
00000000 T main
00000000 T rust_begin_unwind
00000000 T rust_eh_personality
00000000 b _ZN8mosin_os9my_global17h674da4e2cc974d1fE

compiler_builtins-a987b4903ffb4e37.compiler_builtins.ss713szx-cgu.0.rcgu.o:
         U __ashldi3
         U __ashlti3
00000000 T __fixdfdi
00000000 T __fixdfsi
00000000 T __fixdfti
00000000 T __fixsfdi
00000000 T __fixsfsi
00000000 T __fixsfti
00000000 T __fixunsdfdi
00000000 T __fixunsdfsi
00000000 T __fixunsdfti
00000000 T __fixunssfdi
00000000 T __fixunssfsi
00000000 T __fixunssfti
00000000 T __floatdidf
00000000 T __floatdisf
00000000 T __floatsidf
00000000 T __floatsisf
00000000 T __floattidf
00000000 T __floattisf
00000000 T __floatundidf
00000000 T __floatundisf
00000000 T __floatunsidf
00000000 T __floatunsisf
00000000 T __floatuntidf
00000000 T __floatuntisf
         U __lshrdi3
         U __lshrti3

compiler_builtins-a987b4903ffb4e37.compiler_builtins.ss713szx-cgu.1.rcgu.o:
00000000 T __adddf3
00000000 T __addsf3
         U __ashldi3
         U __lshrdi3

compiler_builtins-a987b4903ffb4e37.compiler_builtins.ss713szx-cgu.10.rcgu.o:
00000000 T _ZN17compiler_builtins3int6addsub13rust_i128_add17hb5293ab5ed812595E
00000000 T _ZN17compiler_builtins3int6addsub13rust_i128_sub17h5fbec6d42a0733d7E
00000000 T _ZN17compiler_builtins3int6addsub13rust_u128_add17hce214ce30dc08906E
00000000 T _ZN17compiler_builtins3int6addsub13rust_u128_sub17h8c7ac6f6125e5073E
00000000 T _ZN17compiler_builtins3int6addsub14rust_i128_addo17h985bcd6c3fe15b22E
00000000 T _ZN17compiler_builtins3int6addsub14rust_i128_subo17h227ad42b4eed20a4E
00000000 T _ZN17compiler_builtins3int6addsub14rust_u128_addo17h44cc17201bf240a0E
00000000 T _ZN17compiler_builtins3int6addsub14rust_u128_subo17h3c16cc57b0f97c44E

compiler_builtins-a987b4903ffb4e37.compiler_builtins.ss713szx-cgu.11.rcgu.o:
         U __ashldi3
00000000 T __extendsfdf2

compiler_builtins-a987b4903ffb4e37.compiler_builtins.ss713szx-cgu.12.rcgu.o:
00000000 T memcmp
00000000 T memcpy
00000000 T memmove
00000000 T memset

compiler_builtins-a987b4903ffb4e37.compiler_builtins.ss713szx-cgu.13.rcgu.o:
         U __ashldi3
00000000 T _ZN55_$LT$f32$u20$as$u20$compiler_builtins..float..Float$GT$10from_parts17hedf5abf314e65d02E
00000000 T _ZN55_$LT$f32$u20$as$u20$compiler_builtins..float..Float$GT$11signed_repr17h01b80f3d8670c8b7E
00000000 T _ZN55_$LT$f32$u20$as$u20$compiler_builtins..float..Float$GT$4repr17he856001627be48e5E
00000000 T _ZN55_$LT$f32$u20$as$u20$compiler_builtins..float..Float$GT$9from_repr17hcc3b76e40e5f55deE
00000000 T _ZN55_$LT$f32$u20$as$u20$compiler_builtins..float..Float$GT$9normalize17hbb9df80e1a17ec92E
00000000 T _ZN55_$LT$f64$u20$as$u20$compiler_builtins..float..Float$GT$10from_parts17h98b84acf69e56479E
00000000 T _ZN55_$LT$f64$u20$as$u20$compiler_builtins..float..Float$GT$11signed_repr17h123dc167fa11b2caE
00000000 T _ZN55_$LT$f64$u20$as$u20$compiler_builtins..float..Float$GT$4repr17h24aba6c49d92ba77E
00000000 T _ZN55_$LT$f64$u20$as$u20$compiler_builtins..float..Float$GT$9from_repr17h91d55462162afb80E
00000000 T _ZN55_$LT$f64$u20$as$u20$compiler_builtins..float..Float$GT$9normalize17h7a2cde3664512471E

compiler_builtins-a987b4903ffb4e37.compiler_builtins.ss713szx-cgu.14.rcgu.o:
         U __divdf3
         U __divsf3
         U __muldf3
         U __mulsf3
00000000 T __powidf2
00000000 T __powisf2

compiler_builtins-a987b4903ffb4e37.compiler_builtins.ss713szx-cgu.15.rcgu.o:
         U abort
         U __adddf3
         U __addsf3
00000000 T __mulsi3
00000000 T __subdf3
00000000 T __subsf3
00000000 T _ZN17compiler_builtins5abort17h1d6dc7ab5c87f1c1E

compiler_builtins-a987b4903ffb4e37.compiler_builtins.ss713szx-cgu.2.rcgu.o:
         U __ashldi3
00000000 T __divdf3
00000000 T __divsf3
         U __multi3

compiler_builtins-a987b4903ffb4e37.compiler_builtins.ss713szx-cgu.3.rcgu.o:
         U abort
         U __ashldi3
         U __ashlti3
         U __lshrdi3
         U __lshrti3
00000000 T __udivdi3
00000000 T __udivmoddi4
00000000 T __udivmodsi4
00000000 T __udivmodti4
00000000 T __udivsi3
00000000 T __udivti3
00000000 T __umoddi3
00000000 T __umodsi3
00000000 T __umodti3
00000000 T _ZN17compiler_builtins3int4udiv13rust_u128_div17h1e23de963ab1f959E
00000000 T _ZN17compiler_builtins3int4udiv13rust_u128_rem17hbf782aa92426f562E

compiler_builtins-a987b4903ffb4e37.compiler_builtins.ss713szx-cgu.4.rcgu.o:
         U abort
         U __ashldi3
         U __ashlti3
00000000 T __clzsi2
         U __divdi3
         U __divti3
         U __lshrdi3
         U __moddi3
         U __modti3
         U __multi3
         U __udivdi3
         U __udivti3
         U __umoddi3
         U __umodti3
00000000 T _ZN51_$LT$i32$u20$as$u20$compiler_builtins..int..Int$GT$12aborting_div17h6141667a9cea8f12E
00000000 T _ZN51_$LT$i32$u20$as$u20$compiler_builtins..int..Int$GT$12aborting_rem17h12b0cec589807db4E
00000000 T _ZN51_$LT$i32$u20$as$u20$compiler_builtins..int..Int$GT$12extract_sign17h35a6499b4b90fb9dE
00000000 T _ZN51_$LT$i32$u20$as$u20$compiler_builtins..int..Int$GT$12wrapping_add17hd789224d6aadefc0E
00000000 T _ZN51_$LT$i32$u20$as$u20$compiler_builtins..int..Int$GT$12wrapping_mul17h03aaaf2c2ecc5a74E
00000000 T _ZN51_$LT$i32$u20$as$u20$compiler_builtins..int..Int$GT$12wrapping_shl17h2881cb17dedd23adE
00000000 T _ZN51_$LT$i32$u20$as$u20$compiler_builtins..int..Int$GT$12wrapping_sub17h1e08d7d503a63eb8E
00000000 T _ZN51_$LT$i32$u20$as$u20$compiler_builtins..int..Int$GT$13from_unsigned17hb3f5adbdd6c55cfbE
00000000 T _ZN51_$LT$i32$u20$as$u20$compiler_builtins..int..Int$GT$13leading_zeros17h77a464b760fec5d0E
00000000 T _ZN51_$LT$i32$u20$as$u20$compiler_builtins..int..Int$GT$15overflowing_add17h29115dc08ae2e668E
00000000 T _ZN51_$LT$i32$u20$as$u20$compiler_builtins..int..Int$GT$8unsigned17h407a8db77506f5a4E
00000000 T _ZN51_$LT$i32$u20$as$u20$compiler_builtins..int..Int$GT$9from_bool17h902217df5586308cE
00000000 T _ZN51_$LT$i32$u20$as$u20$compiler_builtins..int..Int$GT$9max_value17h648904b10f56bb31E
00000000 T _ZN51_$LT$i32$u20$as$u20$compiler_builtins..int..Int$GT$9min_value17hc43b111003691b36E
00000000 T _ZN51_$LT$i64$u20$as$u20$compiler_builtins..int..Int$GT$12aborting_div17h93be52a60175290dE
00000000 T _ZN51_$LT$i64$u20$as$u20$compiler_builtins..int..Int$GT$12aborting_rem17hc09239c847aa0b98E
00000000 T _ZN51_$LT$i64$u20$as$u20$compiler_builtins..int..Int$GT$12extract_sign17ha98ba3838addda1cE
00000000 T _ZN51_$LT$i64$u20$as$u20$compiler_builtins..int..Int$GT$12wrapping_add17ha4704db4137f8c76E
00000000 T _ZN51_$LT$i64$u20$as$u20$compiler_builtins..int..Int$GT$12wrapping_mul17h385bbb65cd268b43E
00000000 T _ZN51_$LT$i64$u20$as$u20$compiler_builtins..int..Int$GT$12wrapping_shl17h50e77914795cfec6E
00000000 T _ZN51_$LT$i64$u20$as$u20$compiler_builtins..int..Int$GT$12wrapping_sub17h058166f5168b2c4eE
00000000 T _ZN51_$LT$i64$u20$as$u20$compiler_builtins..int..Int$GT$13from_unsigned17h5de729654845cb44E
00000000 T _ZN51_$LT$i64$u20$as$u20$compiler_builtins..int..Int$GT$13leading_zeros17h775a95e4e5162f96E
00000000 T _ZN51_$LT$i64$u20$as$u20$compiler_builtins..int..Int$GT$15overflowing_add17h54552fc525857288E
00000000 T _ZN51_$LT$i64$u20$as$u20$compiler_builtins..int..Int$GT$8unsigned17he1d82df9c6ef312fE
00000000 T _ZN51_$LT$i64$u20$as$u20$compiler_builtins..int..Int$GT$9from_bool17hf77f93102e4c2921E
00000000 T _ZN51_$LT$i64$u20$as$u20$compiler_builtins..int..Int$GT$9max_value17h4991203af1852e0bE
00000000 T _ZN51_$LT$i64$u20$as$u20$compiler_builtins..int..Int$GT$9min_value17hf305bbba749ae859E
00000000 T _ZN51_$LT$u32$u20$as$u20$compiler_builtins..int..Int$GT$12aborting_div17h947dd3a9b1af665cE
00000000 T _ZN51_$LT$u32$u20$as$u20$compiler_builtins..int..Int$GT$12aborting_rem17h7b7971bdfefaeac5E
00000000 T _ZN51_$LT$u32$u20$as$u20$compiler_builtins..int..Int$GT$12extract_sign17hd4f5275a9ccdc2fdE
00000000 T _ZN51_$LT$u32$u20$as$u20$compiler_builtins..int..Int$GT$12wrapping_add17h50bc4f6660e2bd16E
00000000 T _ZN51_$LT$u32$u20$as$u20$compiler_builtins..int..Int$GT$12wrapping_mul17h10aa359b5386b78bE
00000000 T _ZN51_$LT$u32$u20$as$u20$compiler_builtins..int..Int$GT$12wrapping_shl17h9d0b72def46584f7E
00000000 T _ZN51_$LT$u32$u20$as$u20$compiler_builtins..int..Int$GT$12wrapping_sub17h1262a349546711faE
00000000 T _ZN51_$LT$u32$u20$as$u20$compiler_builtins..int..Int$GT$13from_unsigned17h6de8fd8fe4cd1f04E
00000000 T _ZN51_$LT$u32$u20$as$u20$compiler_builtins..int..Int$GT$13leading_zeros17h7be8ce1f6f287440E
00000000 T _ZN51_$LT$u32$u20$as$u20$compiler_builtins..int..Int$GT$15overflowing_add17h81b2d4d22fb031e6E
00000000 T _ZN51_$LT$u32$u20$as$u20$compiler_builtins..int..Int$GT$8unsigned17hca3e9a5521a3b7a1E
00000000 T _ZN51_$LT$u32$u20$as$u20$compiler_builtins..int..Int$GT$9from_bool17h2ad2baa66c7dc767E
00000000 T _ZN51_$LT$u32$u20$as$u20$compiler_builtins..int..Int$GT$9max_value17h79ecb0380fe812d5E
00000000 T _ZN51_$LT$u32$u20$as$u20$compiler_builtins..int..Int$GT$9min_value17h976f969263fb5ad0E
00000000 T _ZN51_$LT$u64$u20$as$u20$compiler_builtins..int..Int$GT$12aborting_div17hed87438d02db8cc2E
00000000 T _ZN51_$LT$u64$u20$as$u20$compiler_builtins..int..Int$GT$12aborting_rem17h7cf55d2b4aa7d87cE
00000000 T _ZN51_$LT$u64$u20$as$u20$compiler_builtins..int..Int$GT$12extract_sign17h2c6a6869431a38b0E
00000000 T _ZN51_$LT$u64$u20$as$u20$compiler_builtins..int..Int$GT$12wrapping_add17h849ec1f92cc528daE
00000000 T _ZN51_$LT$u64$u20$as$u20$compiler_builtins..int..Int$GT$12wrapping_mul17hd91da3dc6caf4a40E
00000000 T _ZN51_$LT$u64$u20$as$u20$compiler_builtins..int..Int$GT$12wrapping_shl17h2d1d1b4b85c81e1aE
00000000 T _ZN51_$LT$u64$u20$as$u20$compiler_builtins..int..Int$GT$12wrapping_sub17h72ad286555a46ac4E
00000000 T _ZN51_$LT$u64$u20$as$u20$compiler_builtins..int..Int$GT$13from_unsigned17h25a93fa615f8ef99E
00000000 T _ZN51_$LT$u64$u20$as$u20$compiler_builtins..int..Int$GT$13leading_zeros17h8c8917198d0ae4dcE
00000000 T _ZN51_$LT$u64$u20$as$u20$compiler_builtins..int..Int$GT$15overflowing_add17h70060e35ac4611fcE
00000000 T _ZN51_$LT$u64$u20$as$u20$compiler_builtins..int..Int$GT$8unsigned17h6b60e45942d16f8dE
00000000 T _ZN51_$LT$u64$u20$as$u20$compiler_builtins..int..Int$GT$9from_bool17h37704ea31f15cd80E
00000000 T _ZN51_$LT$u64$u20$as$u20$compiler_builtins..int..Int$GT$9max_value17hcb573dce05c797a4E
00000000 T _ZN51_$LT$u64$u20$as$u20$compiler_builtins..int..Int$GT$9min_value17h9ab327081b47e485E
00000000 T _ZN52_$LT$i128$u20$as$u20$compiler_builtins..int..Int$GT$12aborting_div17h69481e66e7a98e83E
00000000 T _ZN52_$LT$i128$u20$as$u20$compiler_builtins..int..Int$GT$12aborting_rem17hf037acd6af3c1c72E
00000000 T _ZN52_$LT$i128$u20$as$u20$compiler_builtins..int..Int$GT$12extract_sign17he71a4d6685478472E
00000000 T _ZN52_$LT$i128$u20$as$u20$compiler_builtins..int..Int$GT$12wrapping_add17h4b0631c347dbd596E
00000000 T _ZN52_$LT$i128$u20$as$u20$compiler_builtins..int..Int$GT$12wrapping_mul17h37fc7c2d758cebadE
00000000 T _ZN52_$LT$i128$u20$as$u20$compiler_builtins..int..Int$GT$12wrapping_shl17h7b754adbb0daf9c1E
00000000 T _ZN52_$LT$i128$u20$as$u20$compiler_builtins..int..Int$GT$12wrapping_sub17h1cb8a7da7aea50f8E
00000000 T _ZN52_$LT$i128$u20$as$u20$compiler_builtins..int..Int$GT$13from_unsigned17h5d3fedd0db274ef8E
00000000 T _ZN52_$LT$i128$u20$as$u20$compiler_builtins..int..Int$GT$13leading_zeros17h0a71ade564f54d05E
00000000 T _ZN52_$LT$i128$u20$as$u20$compiler_builtins..int..Int$GT$15overflowing_add17hab629b8d14416e36E
00000000 T _ZN52_$LT$i128$u20$as$u20$compiler_builtins..int..Int$GT$8unsigned17h37532b331721be2dE
00000000 T _ZN52_$LT$i128$u20$as$u20$compiler_builtins..int..Int$GT$9from_bool17h53070976443afca6E
00000000 T _ZN52_$LT$i128$u20$as$u20$compiler_builtins..int..Int$GT$9max_value17h38ecf2a531291a92E
00000000 T _ZN52_$LT$i128$u20$as$u20$compiler_builtins..int..Int$GT$9min_value17he15d18e2f14f0484E
00000000 T _ZN52_$LT$u128$u20$as$u20$compiler_builtins..int..Int$GT$12aborting_div17h3be951e8058cc288E
00000000 T _ZN52_$LT$u128$u20$as$u20$compiler_builtins..int..Int$GT$12aborting_rem17h7405eea51b950cd5E
00000000 T _ZN52_$LT$u128$u20$as$u20$compiler_builtins..int..Int$GT$12extract_sign17h74ad5906b93f1c15E
00000000 T _ZN52_$LT$u128$u20$as$u20$compiler_builtins..int..Int$GT$12wrapping_add17h847c39cfa406d5a6E
00000000 T _ZN52_$LT$u128$u20$as$u20$compiler_builtins..int..Int$GT$12wrapping_mul17heec05f94a8dc96e2E
00000000 T _ZN52_$LT$u128$u20$as$u20$compiler_builtins..int..Int$GT$12wrapping_shl17h912bc533ee22710aE
00000000 T _ZN52_$LT$u128$u20$as$u20$compiler_builtins..int..Int$GT$12wrapping_sub17h6cc935766fc4575aE
00000000 T _ZN52_$LT$u128$u20$as$u20$compiler_builtins..int..Int$GT$13from_unsigned17h2d60107133ba191aE
00000000 T _ZN52_$LT$u128$u20$as$u20$compiler_builtins..int..Int$GT$13leading_zeros17hfb972e8df8d57e60E
00000000 T _ZN52_$LT$u128$u20$as$u20$compiler_builtins..int..Int$GT$15overflowing_add17ha8f39ddacb5fccebE
00000000 T _ZN52_$LT$u128$u20$as$u20$compiler_builtins..int..Int$GT$8unsigned17hee29299b5f245c9aE
00000000 T _ZN52_$LT$u128$u20$as$u20$compiler_builtins..int..Int$GT$9from_bool17h67efccc522f0507cE
00000000 T _ZN52_$LT$u128$u20$as$u20$compiler_builtins..int..Int$GT$9max_value17hd813ea5bb9598a80E
00000000 T _ZN52_$LT$u128$u20$as$u20$compiler_builtins..int..Int$GT$9min_value17h5105127a7b9aa72dE
00000000 T _ZN55_$LT$u32$u20$as$u20$compiler_builtins..int..WideInt$GT$15wide_shift_left17h1030566244e188a7E
00000000 T _ZN55_$LT$u32$u20$as$u20$compiler_builtins..int..WideInt$GT$28wide_shift_right_with_sticky17h07d51894659f47c1E
00000000 T _ZN55_$LT$u32$u20$as$u20$compiler_builtins..int..WideInt$GT$8wide_mul17h623a3728c07993c8E
00000000 T _ZN55_$LT$u64$u20$as$u20$compiler_builtins..int..WideInt$GT$15wide_shift_left17ha3b2555d0c809243E
00000000 T _ZN55_$LT$u64$u20$as$u20$compiler_builtins..int..WideInt$GT$28wide_shift_right_with_sticky17h168d5af904465d05E
00000000 T _ZN55_$LT$u64$u20$as$u20$compiler_builtins..int..WideInt$GT$8wide_mul17hfcddc2594057c6fbE
00000000 T _ZN56_$LT$i64$u20$as$u20$compiler_builtins..int..LargeInt$GT$10from_parts17hb8c74a04598d70a1E
00000000 T _ZN56_$LT$i64$u20$as$u20$compiler_builtins..int..LargeInt$GT$11high_as_low17he65bd8f5ccb0c0dcE
00000000 T _ZN56_$LT$i64$u20$as$u20$compiler_builtins..int..LargeInt$GT$11low_as_high17hf5055d8ffe7dafc3E
00000000 T _ZN56_$LT$i64$u20$as$u20$compiler_builtins..int..LargeInt$GT$3low17hd0e1a5c630482b18E
00000000 T _ZN56_$LT$i64$u20$as$u20$compiler_builtins..int..LargeInt$GT$4high17hac2bcf3ca93f413bE
00000000 T _ZN56_$LT$u64$u20$as$u20$compiler_builtins..int..LargeInt$GT$10from_parts17h584525469cec788bE
00000000 T _ZN56_$LT$u64$u20$as$u20$compiler_builtins..int..LargeInt$GT$11high_as_low17ha719eadc4ad4aaffE
00000000 T _ZN56_$LT$u64$u20$as$u20$compiler_builtins..int..LargeInt$GT$11low_as_high17h8abf3fcc98bc1f93E
00000000 T _ZN56_$LT$u64$u20$as$u20$compiler_builtins..int..LargeInt$GT$3low17h944e69d585661559E
00000000 T _ZN56_$LT$u64$u20$as$u20$compiler_builtins..int..LargeInt$GT$4high17hadecc9d24c39cfa4E
00000000 T _ZN57_$LT$i128$u20$as$u20$compiler_builtins..int..LargeInt$GT$10from_parts17hf06e90e9e1509131E
00000000 T _ZN57_$LT$i128$u20$as$u20$compiler_builtins..int..LargeInt$GT$11high_as_low17h30588a3be243d471E
00000000 T _ZN57_$LT$i128$u20$as$u20$compiler_builtins..int..LargeInt$GT$11low_as_high17haea798a9065ec892E
00000000 T _ZN57_$LT$i128$u20$as$u20$compiler_builtins..int..LargeInt$GT$3low17h49b3e7d7b5183259E
00000000 T _ZN57_$LT$i128$u20$as$u20$compiler_builtins..int..LargeInt$GT$4high17hff09067e228c6ae1E
00000000 T _ZN57_$LT$u128$u20$as$u20$compiler_builtins..int..LargeInt$GT$10from_parts17he3c183093d56ec15E
00000000 T _ZN57_$LT$u128$u20$as$u20$compiler_builtins..int..LargeInt$GT$11high_as_low17h2653b3350e9c4b41E
00000000 T _ZN57_$LT$u128$u20$as$u20$compiler_builtins..int..LargeInt$GT$11low_as_high17hdd8af033bd1ccf8dE
00000000 T _ZN57_$LT$u128$u20$as$u20$compiler_builtins..int..LargeInt$GT$3low17h22836b43b00b1035E
00000000 T _ZN57_$LT$u128$u20$as$u20$compiler_builtins..int..LargeInt$GT$4high17h9faed08368081110E
00000000 T _ZN67_$LT$i32$u20$as$u20$compiler_builtins..int..CastInto$LT$i32$GT$$GT$4cast17h67fb14432c2b7da2E
00000000 T _ZN67_$LT$i32$u20$as$u20$compiler_builtins..int..CastInto$LT$i64$GT$$GT$4cast17h691809794853ab87E
00000000 T _ZN67_$LT$i32$u20$as$u20$compiler_builtins..int..CastInto$LT$u32$GT$$GT$4cast17h570298444ba1f5b4E
00000000 T _ZN67_$LT$i32$u20$as$u20$compiler_builtins..int..CastInto$LT$u64$GT$$GT$4cast17h754f0da737940fb9E
00000000 T _ZN67_$LT$i64$u20$as$u20$compiler_builtins..int..CastInto$LT$i32$GT$$GT$4cast17hd8e7689d232a0448E
00000000 T _ZN67_$LT$i64$u20$as$u20$compiler_builtins..int..CastInto$LT$i64$GT$$GT$4cast17hdc2e81cb388a4668E
00000000 T _ZN67_$LT$i64$u20$as$u20$compiler_builtins..int..CastInto$LT$u32$GT$$GT$4cast17hd46768cdcb9bcdacE
00000000 T _ZN67_$LT$i64$u20$as$u20$compiler_builtins..int..CastInto$LT$u64$GT$$GT$4cast17hb771fa9bd6ffeb90E
00000000 T _ZN67_$LT$u32$u20$as$u20$compiler_builtins..int..CastInto$LT$i32$GT$$GT$4cast17h5c65d82aeccb55b0E
00000000 T _ZN67_$LT$u32$u20$as$u20$compiler_builtins..int..CastInto$LT$i64$GT$$GT$4cast17hd6866f0bdf3c979bE
00000000 T _ZN67_$LT$u32$u20$as$u20$compiler_builtins..int..CastInto$LT$u32$GT$$GT$4cast17h9982a723ca68b75aE
00000000 T _ZN67_$LT$u32$u20$as$u20$compiler_builtins..int..CastInto$LT$u64$GT$$GT$4cast17h0945a5a344be5aa1E
00000000 T _ZN67_$LT$u64$u20$as$u20$compiler_builtins..int..CastInto$LT$i32$GT$$GT$4cast17h73df73a72d852250E
00000000 T _ZN67_$LT$u64$u20$as$u20$compiler_builtins..int..CastInto$LT$i64$GT$$GT$4cast17h3f42611f489c36dfE
00000000 T _ZN67_$LT$u64$u20$as$u20$compiler_builtins..int..CastInto$LT$u32$GT$$GT$4cast17h67ec318378a310cfE
00000000 T _ZN67_$LT$u64$u20$as$u20$compiler_builtins..int..CastInto$LT$u64$GT$$GT$4cast17h0e5adf0368aa91eaE
00000000 T _ZN68_$LT$i128$u20$as$u20$compiler_builtins..int..CastInto$LT$i32$GT$$GT$4cast17ha235df295662cdb3E
00000000 T _ZN68_$LT$i128$u20$as$u20$compiler_builtins..int..CastInto$LT$i64$GT$$GT$4cast17h2b99ef6ddcff8ecaE
00000000 T _ZN68_$LT$i128$u20$as$u20$compiler_builtins..int..CastInto$LT$u32$GT$$GT$4cast17h01311d29cd24b52cE
00000000 T _ZN68_$LT$i128$u20$as$u20$compiler_builtins..int..CastInto$LT$u64$GT$$GT$4cast17h5d9bca349522edf1E
00000000 T _ZN68_$LT$i32$u20$as$u20$compiler_builtins..int..CastInto$LT$i128$GT$$GT$4cast17hc101d2180095ff57E
00000000 T _ZN68_$LT$i32$u20$as$u20$compiler_builtins..int..CastInto$LT$u128$GT$$GT$4cast17h7493c1e573bccea7E
00000000 T _ZN68_$LT$i64$u20$as$u20$compiler_builtins..int..CastInto$LT$i128$GT$$GT$4cast17h97d258bac4577c99E
00000000 T _ZN68_$LT$i64$u20$as$u20$compiler_builtins..int..CastInto$LT$u128$GT$$GT$4cast17hac81467dfbb563b8E
00000000 T _ZN68_$LT$u128$u20$as$u20$compiler_builtins..int..CastInto$LT$i32$GT$$GT$4cast17hb4295a9c7471c31cE
00000000 T _ZN68_$LT$u128$u20$as$u20$compiler_builtins..int..CastInto$LT$i64$GT$$GT$4cast17h954e527a04f8b5abE
00000000 T _ZN68_$LT$u128$u20$as$u20$compiler_builtins..int..CastInto$LT$u32$GT$$GT$4cast17hb91aaef76b2ee6c9E
00000000 T _ZN68_$LT$u128$u20$as$u20$compiler_builtins..int..CastInto$LT$u64$GT$$GT$4cast17hf753e0d44d2895a9E
00000000 T _ZN68_$LT$u32$u20$as$u20$compiler_builtins..int..CastInto$LT$i128$GT$$GT$4cast17h3d453d6bb5123a71E
00000000 T _ZN68_$LT$u32$u20$as$u20$compiler_builtins..int..CastInto$LT$u128$GT$$GT$4cast17h82d03b9144749104E
00000000 T _ZN68_$LT$u64$u20$as$u20$compiler_builtins..int..CastInto$LT$i128$GT$$GT$4cast17h089578f08a050a23E
00000000 T _ZN68_$LT$u64$u20$as$u20$compiler_builtins..int..CastInto$LT$u128$GT$$GT$4cast17h60018249586abdeaE
00000000 T _ZN69_$LT$i128$u20$as$u20$compiler_builtins..int..CastInto$LT$i128$GT$$GT$4cast17h57233c1407e6de3aE
00000000 T _ZN69_$LT$i128$u20$as$u20$compiler_builtins..int..CastInto$LT$u128$GT$$GT$4cast17h88e6ed2baedac5ccE
00000000 T _ZN69_$LT$i32$u20$as$u20$compiler_builtins..int..CastInto$LT$isize$GT$$GT$4cast17hb1c92258d6459246E
00000000 T _ZN69_$LT$i32$u20$as$u20$compiler_builtins..int..CastInto$LT$usize$GT$$GT$4cast17hfcebfff67dbd0b57E
00000000 T _ZN69_$LT$i64$u20$as$u20$compiler_builtins..int..CastInto$LT$isize$GT$$GT$4cast17h53aad10bf6e3b6d3E
00000000 T _ZN69_$LT$i64$u20$as$u20$compiler_builtins..int..CastInto$LT$usize$GT$$GT$4cast17he592886e128452d5E
00000000 T _ZN69_$LT$u128$u20$as$u20$compiler_builtins..int..CastInto$LT$i128$GT$$GT$4cast17h41c3cb7e0990b7ecE
00000000 T _ZN69_$LT$u128$u20$as$u20$compiler_builtins..int..CastInto$LT$u128$GT$$GT$4cast17h29e11c67bd39b78fE
00000000 T _ZN69_$LT$u32$u20$as$u20$compiler_builtins..int..CastInto$LT$isize$GT$$GT$4cast17hdace245e0ca18d07E
00000000 T _ZN69_$LT$u32$u20$as$u20$compiler_builtins..int..CastInto$LT$usize$GT$$GT$4cast17h04046a29c012030dE
00000000 T _ZN69_$LT$u64$u20$as$u20$compiler_builtins..int..CastInto$LT$isize$GT$$GT$4cast17h875014b0283777f8E
00000000 T _ZN69_$LT$u64$u20$as$u20$compiler_builtins..int..CastInto$LT$usize$GT$$GT$4cast17ha66b1cbd274cc79fE
00000000 T _ZN70_$LT$i128$u20$as$u20$compiler_builtins..int..CastInto$LT$isize$GT$$GT$4cast17h3041dc97b745485bE
00000000 T _ZN70_$LT$i128$u20$as$u20$compiler_builtins..int..CastInto$LT$usize$GT$$GT$4cast17h9ec20b3930107535E
00000000 T _ZN70_$LT$u128$u20$as$u20$compiler_builtins..int..CastInto$LT$isize$GT$$GT$4cast17h34b3457df4f568eeE
00000000 T _ZN70_$LT$u128$u20$as$u20$compiler_builtins..int..CastInto$LT$usize$GT$$GT$4cast17h4be077b188c4fffcE

compiler_builtins-a987b4903ffb4e37.compiler_builtins.ss713szx-cgu.5.rcgu.o:
         U abort
         U __divdi3
         U __divti3
00000000 T __muldi3
00000000 T __mulodi4
00000000 T __mulosi4
00000000 T __muloti4
00000000 T __multi3
         U __udivdi3
         U __udivti3
00000000 T _ZN17compiler_builtins3int3mul13rust_i128_mul17hf9e448bbc4c0456cE
00000000 T _ZN17compiler_builtins3int3mul13rust_u128_mul17h320c66a3bc14d8efE
00000000 T _ZN17compiler_builtins3int3mul14rust_i128_mulo17h3bff7b70641ef8fcE
00000000 T _ZN17compiler_builtins3int3mul14rust_u128_mulo17h2b06dc9c650f540dE

compiler_builtins-a987b4903ffb4e37.compiler_builtins.ss713szx-cgu.6.rcgu.o:
         U __ashldi3
         U __lshrdi3
00000000 T __muldf3
00000000 T __mulsf3
         U __multi3

compiler_builtins-a987b4903ffb4e37.compiler_builtins.ss713szx-cgu.7.rcgu.o:
00000000 T __ashldi3
00000000 T __ashlti3
00000000 T __ashrdi3
00000000 T __ashrti3
00000000 T __lshrdi3
00000000 T __lshrti3
00000000 T _ZN17compiler_builtins3int5shift13rust_i128_shl17hbe34d1228dd5ef60E
00000000 T _ZN17compiler_builtins3int5shift13rust_i128_shr17h1f16b6e2ffbbbc90E
00000000 T _ZN17compiler_builtins3int5shift13rust_u128_shl17h374f3af79e5582adE
00000000 T _ZN17compiler_builtins3int5shift13rust_u128_shr17h4918c519a8eb072bE
00000000 T _ZN17compiler_builtins3int5shift14rust_i128_shlo17h4adf4816d8e730e9E
00000000 T _ZN17compiler_builtins3int5shift14rust_i128_shro17h399bfbe3b4826af4E
00000000 T _ZN17compiler_builtins3int5shift14rust_u128_shlo17h37c09fb2fe6c11aeE
00000000 T _ZN17compiler_builtins3int5shift14rust_u128_shro17h353cc6cc30321007E

compiler_builtins-a987b4903ffb4e37.compiler_builtins.ss713szx-cgu.8.rcgu.o:
00000000 T __eqdf2
00000000 T __eqsf2
00000000 T __gedf2
00000000 T __gesf2
00000000 T __gtdf2
00000000 T __gtsf2
00000000 T __ledf2
00000000 T __lesf2
00000000 T __ltdf2
00000000 T __ltsf2
00000000 T __nedf2
00000000 T __nesf2
00000000 T __unorddf2
00000000 T __unordsf2

compiler_builtins-a987b4903ffb4e37.compiler_builtins.ss713szx-cgu.9.rcgu.o:
         U abort
00000000 T __divdi3
00000000 T __divmoddi4
00000000 T __divmodsi4
00000000 T __divsi3
00000000 T __divti3
00000000 T __moddi3
00000000 T __modsi3
00000000 T __modti3
         U __udivdi3
         U __udivti3
         U __umoddi3
         U __umodti3
00000000 T _ZN17compiler_builtins3int4sdiv13rust_i128_div17h06e761ac20d278f9E
00000000 T _ZN17compiler_builtins3int4sdiv13rust_i128_rem17h1cac497cb18760ebE

core-87b341ced06d2d9e.core.9r1ss7xu-cgu.0.rcgu.o:
         U abort
00000000 R anon.56bd365d1d643971001a5ca83dacdd28.0.llvm.11606327675864989281
00000000 R anon.56bd365d1d643971001a5ca83dacdd28.14.llvm.11606327675864989281
00000000 R anon.56bd365d1d643971001a5ca83dacdd28.15.llvm.11606327675864989281
00000000 r .Lanon.56bd365d1d643971001a5ca83dacdd28.1
00000000 r .Lanon.56bd365d1d643971001a5ca83dacdd28.10
00000000 r .Lanon.56bd365d1d643971001a5ca83dacdd28.11
00000000 r .Lanon.56bd365d1d643971001a5ca83dacdd28.12
00000000 r .Lanon.56bd365d1d643971001a5ca83dacdd28.13
00000000 r .Lanon.56bd365d1d643971001a5ca83dacdd28.2
00000000 r .Lanon.56bd365d1d643971001a5ca83dacdd28.3
00000000 r .Lanon.56bd365d1d643971001a5ca83dacdd28.4
00000000 r .Lanon.56bd365d1d643971001a5ca83dacdd28.5
00000000 r .Lanon.56bd365d1d643971001a5ca83dacdd28.6
00000000 r .Lanon.56bd365d1d643971001a5ca83dacdd28.7
00000000 r .Lanon.56bd365d1d643971001a5ca83dacdd28.8
00000000 r .Lanon.56bd365d1d643971001a5ca83dacdd28.9
         U __multi3
         U __udivdi3
         U __udivti3
00000000 T _ZN42_$LT$i8$u20$as$u20$core..fmt..num..Int$GT$4zero17h3eaa8495b8eaea62E
00000000 T _ZN42_$LT$i8$u20$as$u20$core..fmt..num..Int$GT$5to_u817h3115fb53df6e9fbbE
00000000 T _ZN42_$LT$i8$u20$as$u20$core..fmt..num..Int$GT$6to_u1617h2333a7a0ae256401E
00000000 T _ZN42_$LT$i8$u20$as$u20$core..fmt..num..Int$GT$6to_u3217h2f09a8a5184eb7feE
00000000 T _ZN42_$LT$i8$u20$as$u20$core..fmt..num..Int$GT$6to_u6417h22c58c5c51a8c762E
00000000 T _ZN42_$LT$i8$u20$as$u20$core..fmt..num..Int$GT$7from_u817h4e526200611cc0e8E
00000000 T _ZN42_$LT$i8$u20$as$u20$core..fmt..num..Int$GT$7to_u12817h0a2c9561bfb8c8efE
00000000 T _ZN42_$LT$u8$u20$as$u20$core..fmt..num..Int$GT$4zero17h3759be9337322036E
00000000 T _ZN42_$LT$u8$u20$as$u20$core..fmt..num..Int$GT$5to_u817hc2f6743fc13757d5E
00000000 T _ZN42_$LT$u8$u20$as$u20$core..fmt..num..Int$GT$6to_u1617hdf446d5a287f5759E
00000000 T _ZN42_$LT$u8$u20$as$u20$core..fmt..num..Int$GT$6to_u3217h5ccd4f4c709622d8E
00000000 T _ZN42_$LT$u8$u20$as$u20$core..fmt..num..Int$GT$6to_u6417h8e907d96cb7d1da8E
00000000 T _ZN42_$LT$u8$u20$as$u20$core..fmt..num..Int$GT$7from_u817h6ee01d7277c5a264E
00000000 T _ZN42_$LT$u8$u20$as$u20$core..fmt..num..Int$GT$7to_u12817h7f3f8ce7c2ed7ba4E
00000000 T _ZN43_$LT$i16$u20$as$u20$core..fmt..num..Int$GT$4zero17ha629824041f26ca4E
00000000 T _ZN43_$LT$i16$u20$as$u20$core..fmt..num..Int$GT$5to_u817h9e2fb3f728eee569E
00000000 T _ZN43_$LT$i16$u20$as$u20$core..fmt..num..Int$GT$6to_u1617h4c9df934a4004da3E
00000000 T _ZN43_$LT$i16$u20$as$u20$core..fmt..num..Int$GT$6to_u3217hb492fb4606e6aad7E
00000000 T _ZN43_$LT$i16$u20$as$u20$core..fmt..num..Int$GT$6to_u6417h5a563d80ca56875eE
00000000 T _ZN43_$LT$i16$u20$as$u20$core..fmt..num..Int$GT$7from_u817hb3d2a1554426a028E
00000000 T _ZN43_$LT$i16$u20$as$u20$core..fmt..num..Int$GT$7to_u12817h492715dfd6af63f6E
00000000 T _ZN43_$LT$i32$u20$as$u20$core..fmt..num..Int$GT$4zero17hac3702a5ef035ec7E
00000000 T _ZN43_$LT$i32$u20$as$u20$core..fmt..num..Int$GT$5to_u817h192af05761c1bc09E
00000000 T _ZN43_$LT$i32$u20$as$u20$core..fmt..num..Int$GT$6to_u1617h7859c1d3f9d61560E
00000000 T _ZN43_$LT$i32$u20$as$u20$core..fmt..num..Int$GT$6to_u3217hd917d74bb455dc0bE
00000000 T _ZN43_$LT$i32$u20$as$u20$core..fmt..num..Int$GT$6to_u6417h0167b77bcf7db6aaE
00000000 T _ZN43_$LT$i32$u20$as$u20$core..fmt..num..Int$GT$7from_u817hf2ff4f65c93e2382E
00000000 T _ZN43_$LT$i32$u20$as$u20$core..fmt..num..Int$GT$7to_u12817hfacb3f838bc1ea7bE
00000000 T _ZN43_$LT$i64$u20$as$u20$core..fmt..num..Int$GT$4zero17h17578f2d15624cdbE
00000000 T _ZN43_$LT$i64$u20$as$u20$core..fmt..num..Int$GT$5to_u817hd2be3a49dd0a5e23E
00000000 T _ZN43_$LT$i64$u20$as$u20$core..fmt..num..Int$GT$6to_u1617hbaad3908ae8fa57dE
00000000 T _ZN43_$LT$i64$u20$as$u20$core..fmt..num..Int$GT$6to_u3217h7cac88fa778bf2e1E
00000000 T _ZN43_$LT$i64$u20$as$u20$core..fmt..num..Int$GT$6to_u6417h1c861c5ac514c58dE
00000000 T _ZN43_$LT$i64$u20$as$u20$core..fmt..num..Int$GT$7from_u817h46189e1682701da1E
00000000 T _ZN43_$LT$i64$u20$as$u20$core..fmt..num..Int$GT$7to_u12817h5285d69a2038074dE
00000000 T _ZN43_$LT$u16$u20$as$u20$core..fmt..num..Int$GT$4zero17hd774ed31a9d71ec3E
00000000 T _ZN43_$LT$u16$u20$as$u20$core..fmt..num..Int$GT$5to_u817h56da89ba2c68e1a3E
00000000 T _ZN43_$LT$u16$u20$as$u20$core..fmt..num..Int$GT$6to_u1617h2d88ff85f79be2a5E
00000000 T _ZN43_$LT$u16$u20$as$u20$core..fmt..num..Int$GT$6to_u3217h2787da23ec2f9409E
00000000 T _ZN43_$LT$u16$u20$as$u20$core..fmt..num..Int$GT$6to_u6417h46d3d3f46da39da2E
00000000 T _ZN43_$LT$u16$u20$as$u20$core..fmt..num..Int$GT$7from_u817h1a6533633ebb3d14E
00000000 T _ZN43_$LT$u16$u20$as$u20$core..fmt..num..Int$GT$7to_u12817h07f358aa1320f0ecE
00000000 T _ZN43_$LT$u32$u20$as$u20$core..fmt..num..Int$GT$4zero17hf6db84b3cdb3dc62E
00000000 T _ZN43_$LT$u32$u20$as$u20$core..fmt..num..Int$GT$5to_u817h38a64593b0cee96dE
00000000 T _ZN43_$LT$u32$u20$as$u20$core..fmt..num..Int$GT$6to_u1617heb972f09b7d0a2ebE
00000000 T _ZN43_$LT$u32$u20$as$u20$core..fmt..num..Int$GT$6to_u3217h0de68ab87df52cfcE
00000000 T _ZN43_$LT$u32$u20$as$u20$core..fmt..num..Int$GT$6to_u6417h7a1073a6d4a97dc2E
00000000 T _ZN43_$LT$u32$u20$as$u20$core..fmt..num..Int$GT$7from_u817h9fc8c50eec95f873E
00000000 T _ZN43_$LT$u32$u20$as$u20$core..fmt..num..Int$GT$7to_u12817hdade04af1220963eE
00000000 T _ZN43_$LT$u64$u20$as$u20$core..fmt..num..Int$GT$4zero17h895dbcbc78c3e301E
00000000 T _ZN43_$LT$u64$u20$as$u20$core..fmt..num..Int$GT$5to_u817h65ef76fcdd6b6763E
00000000 T _ZN43_$LT$u64$u20$as$u20$core..fmt..num..Int$GT$6to_u1617h6d24949ea32ee55eE
00000000 T _ZN43_$LT$u64$u20$as$u20$core..fmt..num..Int$GT$6to_u3217h494f7c173fc8001cE
00000000 T _ZN43_$LT$u64$u20$as$u20$core..fmt..num..Int$GT$6to_u6417hafa7534fb21edd4fE
00000000 T _ZN43_$LT$u64$u20$as$u20$core..fmt..num..Int$GT$7from_u817hbcd37e496abc41daE
00000000 T _ZN43_$LT$u64$u20$as$u20$core..fmt..num..Int$GT$7to_u12817h0b5e20c2364c76aeE
00000000 T _ZN44_$LT$i128$u20$as$u20$core..fmt..num..Int$GT$4zero17h963434e97b953fa8E
00000000 T _ZN44_$LT$i128$u20$as$u20$core..fmt..num..Int$GT$5to_u817h12cb0708846c2eeeE
00000000 T _ZN44_$LT$i128$u20$as$u20$core..fmt..num..Int$GT$6to_u1617h05b0daab36df6c21E
00000000 T _ZN44_$LT$i128$u20$as$u20$core..fmt..num..Int$GT$6to_u3217h320e6214f9aecb12E
00000000 T _ZN44_$LT$i128$u20$as$u20$core..fmt..num..Int$GT$6to_u6417hbd3bcf6b990ad575E
00000000 T _ZN44_$LT$i128$u20$as$u20$core..fmt..num..Int$GT$7from_u817h72bca2cb4e4eb76cE
00000000 T _ZN44_$LT$i128$u20$as$u20$core..fmt..num..Int$GT$7to_u12817h33f8bd70b834f042E
00000000 T _ZN44_$LT$u128$u20$as$u20$core..fmt..num..Int$GT$4zero17hc3cbb599017bbd8cE
00000000 T _ZN44_$LT$u128$u20$as$u20$core..fmt..num..Int$GT$5to_u817hdc7034b699d615f6E
00000000 T _ZN44_$LT$u128$u20$as$u20$core..fmt..num..Int$GT$6to_u1617he75f4bbe923071a2E
00000000 T _ZN44_$LT$u128$u20$as$u20$core..fmt..num..Int$GT$6to_u3217hcb4504e11b7cbd47E
00000000 T _ZN44_$LT$u128$u20$as$u20$core..fmt..num..Int$GT$6to_u6417hd002414b06ea2bd9E
00000000 T _ZN44_$LT$u128$u20$as$u20$core..fmt..num..Int$GT$7from_u817h8ba43b59e1966171E
00000000 T _ZN44_$LT$u128$u20$as$u20$core..fmt..num..Int$GT$7to_u12817h62c993eeffa8e3c5E
00000000 T _ZN45_$LT$isize$u20$as$u20$core..fmt..num..Int$GT$4zero17ha1cd2cad97f238c4E
00000000 T _ZN45_$LT$isize$u20$as$u20$core..fmt..num..Int$GT$5to_u817h2d073afc98433be2E
00000000 T _ZN45_$LT$isize$u20$as$u20$core..fmt..num..Int$GT$6to_u1617h3d67a4d1bf1577a4E
00000000 T _ZN45_$LT$isize$u20$as$u20$core..fmt..num..Int$GT$6to_u3217h5978fb935cede7d3E
00000000 T _ZN45_$LT$isize$u20$as$u20$core..fmt..num..Int$GT$6to_u6417hf21032ca220caf96E
00000000 T _ZN45_$LT$isize$u20$as$u20$core..fmt..num..Int$GT$7from_u817h990fe37d7ee66f8fE
00000000 T _ZN45_$LT$isize$u20$as$u20$core..fmt..num..Int$GT$7to_u12817h4cf42253ed529e77E
00000000 T _ZN45_$LT$usize$u20$as$u20$core..fmt..num..Int$GT$4zero17h650d362ac921f7e4E
00000000 T _ZN45_$LT$usize$u20$as$u20$core..fmt..num..Int$GT$5to_u817ha767c5acae1e729aE
00000000 T _ZN45_$LT$usize$u20$as$u20$core..fmt..num..Int$GT$6to_u1617h088055baf8c87819E
00000000 T _ZN45_$LT$usize$u20$as$u20$core..fmt..num..Int$GT$6to_u3217ha303a9f6ab4d9ca7E
00000000 T _ZN45_$LT$usize$u20$as$u20$core..fmt..num..Int$GT$6to_u6417h1f240eaee01ee5fcE
00000000 T _ZN45_$LT$usize$u20$as$u20$core..fmt..num..Int$GT$7from_u817h60063c598824c12dE
00000000 T _ZN45_$LT$usize$u20$as$u20$core..fmt..num..Int$GT$7to_u12817h475b6f82e61e7487E
00000000 T _ZN4core3fmt3num49_$LT$impl$u20$core..fmt..Octal$u20$for$u20$i8$GT$3fmt17hd9f4b14cc6b73648E
00000000 T _ZN4core3fmt3num49_$LT$impl$u20$core..fmt..Octal$u20$for$u20$u8$GT$3fmt17h0e512e9a87b23436E
00000000 T _ZN4core3fmt3num50_$LT$impl$u20$core..fmt..Binary$u20$for$u20$i8$GT$3fmt17h45718f16f993bfa7E
00000000 T _ZN4core3fmt3num50_$LT$impl$u20$core..fmt..Binary$u20$for$u20$u8$GT$3fmt17ha390d99d96b9e1acE
00000000 T _ZN4core3fmt3num50_$LT$impl$u20$core..fmt..Octal$u20$for$u20$i16$GT$3fmt17hc186a0b8ef225b88E
00000000 T _ZN4core3fmt3num50_$LT$impl$u20$core..fmt..Octal$u20$for$u20$i32$GT$3fmt17h322ac2169e5d5179E
00000000 T _ZN4core3fmt3num50_$LT$impl$u20$core..fmt..Octal$u20$for$u20$i64$GT$3fmt17hc2cf6fa6b583d28dE
00000000 T _ZN4core3fmt3num50_$LT$impl$u20$core..fmt..Octal$u20$for$u20$u16$GT$3fmt17h8b70f621a78b6d68E
00000000 T _ZN4core3fmt3num50_$LT$impl$u20$core..fmt..Octal$u20$for$u20$u32$GT$3fmt17hf91e496447842f29E
00000000 T _ZN4core3fmt3num50_$LT$impl$u20$core..fmt..Octal$u20$for$u20$u64$GT$3fmt17hb20434abbf3a8194E
00000000 T _ZN4core3fmt3num51_$LT$impl$u20$core..fmt..Binary$u20$for$u20$i16$GT$3fmt17hdac07ab4089a378fE
00000000 T _ZN4core3fmt3num51_$LT$impl$u20$core..fmt..Binary$u20$for$u20$i32$GT$3fmt17h3765ac52ec36426aE
00000000 T _ZN4core3fmt3num51_$LT$impl$u20$core..fmt..Binary$u20$for$u20$i64$GT$3fmt17hfdb3315c593e92f9E
00000000 T _ZN4core3fmt3num51_$LT$impl$u20$core..fmt..Binary$u20$for$u20$u16$GT$3fmt17hf55fd9415ba25fa7E
00000000 T _ZN4core3fmt3num51_$LT$impl$u20$core..fmt..Binary$u20$for$u20$u32$GT$3fmt17hac43bb5eb558a968E
00000000 T _ZN4core3fmt3num51_$LT$impl$u20$core..fmt..Binary$u20$for$u20$u64$GT$3fmt17hc2631fca4f626c2bE
00000000 T _ZN4core3fmt3num51_$LT$impl$u20$core..fmt..Display$u20$for$u20$i8$GT$3fmt17h1fa5629a7c30d8a7E
00000000 T _ZN4core3fmt3num51_$LT$impl$u20$core..fmt..Display$u20$for$u20$u8$GT$3fmt17ha31007e1585d3bedE
00000000 T _ZN4core3fmt3num51_$LT$impl$u20$core..fmt..Octal$u20$for$u20$i128$GT$3fmt17h7d3ef6068c67ceadE
00000000 T _ZN4core3fmt3num51_$LT$impl$u20$core..fmt..Octal$u20$for$u20$u128$GT$3fmt17hf293b8ffef1a738aE
00000000 T _ZN4core3fmt3num52_$LT$impl$u20$core..fmt..Binary$u20$for$u20$i128$GT$3fmt17h0d873476a87c346eE
00000000 T _ZN4core3fmt3num52_$LT$impl$u20$core..fmt..Binary$u20$for$u20$u128$GT$3fmt17he003eb2631a43100E
00000000 T _ZN4core3fmt3num52_$LT$impl$u20$core..fmt..Display$u20$for$u20$i16$GT$3fmt17hfdac02f9530428ffE
00000000 T _ZN4core3fmt3num52_$LT$impl$u20$core..fmt..Display$u20$for$u20$i32$GT$3fmt17h44ac88cb8d5161b5E
00000000 T _ZN4core3fmt3num52_$LT$impl$u20$core..fmt..Display$u20$for$u20$i64$GT$3fmt17h1840576384a0b112E
00000000 T _ZN4core3fmt3num52_$LT$impl$u20$core..fmt..Display$u20$for$u20$u16$GT$3fmt17h3095a1630d1ed550E
00000000 T _ZN4core3fmt3num52_$LT$impl$u20$core..fmt..Display$u20$for$u20$u32$GT$3fmt17h5e2a8a15e581fae7E
00000000 T _ZN4core3fmt3num52_$LT$impl$u20$core..fmt..Display$u20$for$u20$u64$GT$3fmt17h51ca19a410295c6aE
00000000 T _ZN4core3fmt3num52_$LT$impl$u20$core..fmt..LowerHex$u20$for$u20$i8$GT$3fmt17hebdabd72b1f46ffdE
00000000 T _ZN4core3fmt3num52_$LT$impl$u20$core..fmt..LowerHex$u20$for$u20$u8$GT$3fmt17h561ac22e2444de11E
00000000 T _ZN4core3fmt3num52_$LT$impl$u20$core..fmt..Octal$u20$for$u20$isize$GT$3fmt17h168b1e3fddd1558cE
00000000 T _ZN4core3fmt3num52_$LT$impl$u20$core..fmt..Octal$u20$for$u20$usize$GT$3fmt17hba16fc382f2f8eedE
00000000 T _ZN4core3fmt3num52_$LT$impl$u20$core..fmt..UpperHex$u20$for$u20$i8$GT$3fmt17h64590e9c8e35ec5fE
00000000 T _ZN4core3fmt3num52_$LT$impl$u20$core..fmt..UpperHex$u20$for$u20$u8$GT$3fmt17hdf6ca2281dbb7023E
00000000 T _ZN4core3fmt3num53_$LT$impl$u20$core..fmt..Binary$u20$for$u20$isize$GT$3fmt17hc5d35344f026a2e3E
00000000 T _ZN4core3fmt3num53_$LT$impl$u20$core..fmt..Binary$u20$for$u20$usize$GT$3fmt17hf0bf655e9795d08fE
00000000 T _ZN4core3fmt3num53_$LT$impl$u20$core..fmt..Display$u20$for$u20$i128$GT$3fmt17hef7fe5f775fd536aE
00000000 T _ZN4core3fmt3num53_$LT$impl$u20$core..fmt..Display$u20$for$u20$u128$GT$3fmt17h001f099ccf5ac83aE
00000000 T _ZN4core3fmt3num53_$LT$impl$u20$core..fmt..LowerHex$u20$for$u20$i16$GT$3fmt17hfff4204a12ea775eE
00000000 T _ZN4core3fmt3num53_$LT$impl$u20$core..fmt..LowerHex$u20$for$u20$i32$GT$3fmt17h5626e63d5b774433E
00000000 T _ZN4core3fmt3num53_$LT$impl$u20$core..fmt..LowerHex$u20$for$u20$i64$GT$3fmt17h4110b0549329b189E
00000000 T _ZN4core3fmt3num53_$LT$impl$u20$core..fmt..LowerHex$u20$for$u20$u16$GT$3fmt17hcace5e3a61c0a8b2E
00000000 T _ZN4core3fmt3num53_$LT$impl$u20$core..fmt..LowerHex$u20$for$u20$u32$GT$3fmt17hcca62a9c54b557ceE
00000000 T _ZN4core3fmt3num53_$LT$impl$u20$core..fmt..LowerHex$u20$for$u20$u64$GT$3fmt17h43982e9b94ef27dcE
00000000 T _ZN4core3fmt3num53_$LT$impl$u20$core..fmt..UpperHex$u20$for$u20$i16$GT$3fmt17ha8b7598840b31c5bE
00000000 T _ZN4core3fmt3num53_$LT$impl$u20$core..fmt..UpperHex$u20$for$u20$i32$GT$3fmt17h3f6f704d5a69a986E
00000000 T _ZN4core3fmt3num53_$LT$impl$u20$core..fmt..UpperHex$u20$for$u20$i64$GT$3fmt17h0d6ae134513373bdE
00000000 T _ZN4core3fmt3num53_$LT$impl$u20$core..fmt..UpperHex$u20$for$u20$u16$GT$3fmt17hbbc0fcbcf8ca1d01E
00000000 T _ZN4core3fmt3num53_$LT$impl$u20$core..fmt..UpperHex$u20$for$u20$u32$GT$3fmt17h99eb1f0a64621871E
00000000 T _ZN4core3fmt3num53_$LT$impl$u20$core..fmt..UpperHex$u20$for$u20$u64$GT$3fmt17h7c123bc7c2ebcdafE
00000000 T _ZN4core3fmt3num54_$LT$impl$u20$core..fmt..Display$u20$for$u20$isize$GT$3fmt17h2581f2db74906d09E
00000000 T _ZN4core3fmt3num54_$LT$impl$u20$core..fmt..Display$u20$for$u20$usize$GT$3fmt17h7bc02b1ea81359c6E
00000000 T _ZN4core3fmt3num54_$LT$impl$u20$core..fmt..LowerHex$u20$for$u20$i128$GT$3fmt17ha2b5160a54c206bdE
00000000 T _ZN4core3fmt3num54_$LT$impl$u20$core..fmt..LowerHex$u20$for$u20$u128$GT$3fmt17h5fff072ee0b7bed7E
00000000 T _ZN4core3fmt3num54_$LT$impl$u20$core..fmt..UpperHex$u20$for$u20$i128$GT$3fmt17h84df42fc3338b329E
00000000 T _ZN4core3fmt3num54_$LT$impl$u20$core..fmt..UpperHex$u20$for$u20$u128$GT$3fmt17h9c5a38aa98022163E
00000000 T _ZN4core3fmt3num55_$LT$impl$u20$core..fmt..LowerHex$u20$for$u20$isize$GT$3fmt17h26f5aabefa0a5a1fE
00000000 T _ZN4core3fmt3num55_$LT$impl$u20$core..fmt..LowerHex$u20$for$u20$usize$GT$3fmt17h827ac4a1a5308687E
00000000 T _ZN4core3fmt3num55_$LT$impl$u20$core..fmt..UpperHex$u20$for$u20$isize$GT$3fmt17h82107433e4481092E
00000000 T _ZN4core3fmt3num55_$LT$impl$u20$core..fmt..UpperHex$u20$for$u20$usize$GT$3fmt17h429502edc3f06fb4E
         U _ZN4core3fmt9Formatter12pad_integral17hd956203cec70dfa5E
         U _ZN4core5slice22slice_index_order_fail17h5c97dc70a1ee6408E
         U _ZN4core9panicking9panic_fmt17hb2b57d407fcd299fE
00000000 T _ZN70_$LT$core..fmt..num..Octal$u20$as$u20$core..fmt..num..GenericRadix$GT$5digit17h813987b2dc8dfc66E
00000000 T _ZN71_$LT$core..fmt..num..Binary$u20$as$u20$core..fmt..num..GenericRadix$GT$5digit17hb30b558a7ceedc2eE
00000000 T _ZN73_$LT$core..fmt..num..LowerHex$u20$as$u20$core..fmt..num..GenericRadix$GT$5digit17h00059ddf9ebac0a1E
00000000 T _ZN73_$LT$core..fmt..num..UpperHex$u20$as$u20$core..fmt..num..GenericRadix$GT$5digit17hc33bfa68c951a1eaE

core-87b341ced06d2d9e.core.9r1ss7xu-cgu.1.rcgu.o:
         U anon.31c391fee95154598eab410655e56dc4.28.llvm.8755331276361445789
         U anon.31c391fee95154598eab410655e56dc4.30.llvm.8755331276361445789
         U anon.31c391fee95154598eab410655e56dc4.36.llvm.8755331276361445789
00000000 r .Lanon.c28b198b1bf552ffc70c98f30b66c66f.0
00000000 r .Lanon.c28b198b1bf552ffc70c98f30b66c66f.1
00000010 r .Lanon.c28b198b1bf552ffc70c98f30b66c66f.10
00000000 r .Lanon.c28b198b1bf552ffc70c98f30b66c66f.11
00000000 r .Lanon.c28b198b1bf552ffc70c98f30b66c66f.12
00000000 r .Lanon.c28b198b1bf552ffc70c98f30b66c66f.13
00000000 r .Lanon.c28b198b1bf552ffc70c98f30b66c66f.14
00000000 r .Lanon.c28b198b1bf552ffc70c98f30b66c66f.15
00000014 r .Lanon.c28b198b1bf552ffc70c98f30b66c66f.16
00000000 r .Lanon.c28b198b1bf552ffc70c98f30b66c66f.17
00000000 r .Lanon.c28b198b1bf552ffc70c98f30b66c66f.18
00000000 r .Lanon.c28b198b1bf552ffc70c98f30b66c66f.19
00000004 r .Lanon.c28b198b1bf552ffc70c98f30b66c66f.2
00000000 r .Lanon.c28b198b1bf552ffc70c98f30b66c66f.20
00000000 r .Lanon.c28b198b1bf552ffc70c98f30b66c66f.21
00000000 r .Lanon.c28b198b1bf552ffc70c98f30b66c66f.22
00000000 r .Lanon.c28b198b1bf552ffc70c98f30b66c66f.23
00000000 r .Lanon.c28b198b1bf552ffc70c98f30b66c66f.24
00000000 r .Lanon.c28b198b1bf552ffc70c98f30b66c66f.25
00000000 r .Lanon.c28b198b1bf552ffc70c98f30b66c66f.26
00000000 r .Lanon.c28b198b1bf552ffc70c98f30b66c66f.27
00000000 r .Lanon.c28b198b1bf552ffc70c98f30b66c66f.28
00000000 r .Lanon.c28b198b1bf552ffc70c98f30b66c66f.29
00000000 r .Lanon.c28b198b1bf552ffc70c98f30b66c66f.3
00000000 r .Lanon.c28b198b1bf552ffc70c98f30b66c66f.30
00000000 r .Lanon.c28b198b1bf552ffc70c98f30b66c66f.31
00000000 r .Lanon.c28b198b1bf552ffc70c98f30b66c66f.32
00000000 r .Lanon.c28b198b1bf552ffc70c98f30b66c66f.33
00000000 r .Lanon.c28b198b1bf552ffc70c98f30b66c66f.34
00000000 r .Lanon.c28b198b1bf552ffc70c98f30b66c66f.35
00000000 r .Lanon.c28b198b1bf552ffc70c98f30b66c66f.36
00000000 r .Lanon.c28b198b1bf552ffc70c98f30b66c66f.37
00000000 r .Lanon.c28b198b1bf552ffc70c98f30b66c66f.38
00000000 r .Lanon.c28b198b1bf552ffc70c98f30b66c66f.39
00000008 r .Lanon.c28b198b1bf552ffc70c98f30b66c66f.4
00000000 r .Lanon.c28b198b1bf552ffc70c98f30b66c66f.40
00000000 r .Lanon.c28b198b1bf552ffc70c98f30b66c66f.41
00000000 r .Lanon.c28b198b1bf552ffc70c98f30b66c66f.42
00000000 r .Lanon.c28b198b1bf552ffc70c98f30b66c66f.43
00000000 r .Lanon.c28b198b1bf552ffc70c98f30b66c66f.44
00000000 r .Lanon.c28b198b1bf552ffc70c98f30b66c66f.45
00000000 r .Lanon.c28b198b1bf552ffc70c98f30b66c66f.46
00000000 r .Lanon.c28b198b1bf552ffc70c98f30b66c66f.47
00000000 r .Lanon.c28b198b1bf552ffc70c98f30b66c66f.5
00000000 r .Lanon.c28b198b1bf552ffc70c98f30b66c66f.6
0000000c r .Lanon.c28b198b1bf552ffc70c98f30b66c66f.7
00000000 r .Lanon.c28b198b1bf552ffc70c98f30b66c66f.8
00000000 r .Lanon.c28b198b1bf552ffc70c98f30b66c66f.9
         U _ZN42_$LT$$RF$T$u20$as$u20$core..fmt..Debug$GT$3fmt17h071c8b97708e64c4E
         U _ZN42_$LT$$RF$T$u20$as$u20$core..fmt..Debug$GT$3fmt17h3dd42871faf1d270E
         U _ZN42_$LT$$RF$T$u20$as$u20$core..fmt..Debug$GT$3fmt17h53229ae36b7c8cedE
         U _ZN42_$LT$$RF$T$u20$as$u20$core..fmt..Debug$GT$3fmt17h73428e0e360aea83E
         U _ZN42_$LT$$RF$T$u20$as$u20$core..fmt..Debug$GT$3fmt17hb368d3d16c88e5caE
         U _ZN42_$LT$$RF$T$u20$as$u20$core..fmt..Debug$GT$3fmt17hbb30bd8133600c3dE
         U _ZN42_$LT$$RF$T$u20$as$u20$core..fmt..Debug$GT$3fmt17hc67a869f6630c263E
         U _ZN42_$LT$$RF$T$u20$as$u20$core..fmt..Debug$GT$3fmt17hea0d775ed95d904bE
         U _ZN42_$LT$$RF$T$u20$as$u20$core..fmt..Debug$GT$3fmt17hefbbd91fbf1e84ceE
         U _ZN42_$LT$$RF$T$u20$as$u20$core..fmt..Debug$GT$3fmt17hefffefdb1c4e8d2fE
         U _ZN4core3fmt8builders10DebugTuple5field17hdeeb14ec9411353fE
00000000 t _ZN4core3ptr18real_drop_in_place17h0b3572d52b14d96bE
00000000 T _ZN63_$LT$core..coresimd..simd..i8x2$u20$as$u20$core..fmt..Debug$GT$3fmt17h4871fd038588f169E
00000000 T _ZN63_$LT$core..coresimd..simd..i8x4$u20$as$u20$core..fmt..Debug$GT$3fmt17h99ef1a7207c811fcE
00000000 T _ZN63_$LT$core..coresimd..simd..i8x8$u20$as$u20$core..fmt..Debug$GT$3fmt17hd756e3d25faa0518E
00000000 T _ZN63_$LT$core..coresimd..simd..u8x2$u20$as$u20$core..fmt..Debug$GT$3fmt17h461ea001659d7efeE
00000000 T _ZN63_$LT$core..coresimd..simd..u8x4$u20$as$u20$core..fmt..Debug$GT$3fmt17h33f6cdc0985aa6b2E
00000000 T _ZN63_$LT$core..coresimd..simd..u8x8$u20$as$u20$core..fmt..Debug$GT$3fmt17h38159c085b8a8c09E
00000000 T _ZN64_$LT$core..coresimd..simd..f32x2$u20$as$u20$core..fmt..Debug$GT$3fmt17h50652f28e1a65213E
00000000 T _ZN64_$LT$core..coresimd..simd..f32x4$u20$as$u20$core..fmt..Debug$GT$3fmt17hc79bb4f639928f50E
00000000 T _ZN64_$LT$core..coresimd..simd..f64x2$u20$as$u20$core..fmt..Debug$GT$3fmt17h9263da70f37223deE
00000000 T _ZN64_$LT$core..coresimd..simd..i16x2$u20$as$u20$core..fmt..Debug$GT$3fmt17h9ecd517fd9d8ba4fE
00000000 T _ZN64_$LT$core..coresimd..simd..i16x4$u20$as$u20$core..fmt..Debug$GT$3fmt17hb458be0879870080E
00000000 T _ZN64_$LT$core..coresimd..simd..i16x8$u20$as$u20$core..fmt..Debug$GT$3fmt17h25d39c08b5df6697E
00000000 T _ZN64_$LT$core..coresimd..simd..i32x2$u20$as$u20$core..fmt..Debug$GT$3fmt17h56108031e9926f75E
00000000 T _ZN64_$LT$core..coresimd..simd..i32x4$u20$as$u20$core..fmt..Debug$GT$3fmt17hce215e856cb50dc6E
00000000 T _ZN64_$LT$core..coresimd..simd..i32x8$u20$as$u20$core..fmt..Debug$GT$3fmt17h8446dda4f0bd82ccE
00000000 T _ZN64_$LT$core..coresimd..simd..i64x1$u20$as$u20$core..fmt..Debug$GT$3fmt17hcf7250e774b9da47E
00000000 T _ZN64_$LT$core..coresimd..simd..i64x2$u20$as$u20$core..fmt..Debug$GT$3fmt17h4fa75257c57055d9E
00000000 T _ZN64_$LT$core..coresimd..simd..i64x4$u20$as$u20$core..fmt..Debug$GT$3fmt17h2d2fb46032f3aeb3E
00000000 T _ZN64_$LT$core..coresimd..simd..i8x16$u20$as$u20$core..fmt..Debug$GT$3fmt17h8d07322c929c2a52E
00000000 T _ZN64_$LT$core..coresimd..simd..i8x32$u20$as$u20$core..fmt..Debug$GT$3fmt17hf5e16526186b1b5bE
00000000 T _ZN64_$LT$core..coresimd..simd..m16x8$u20$as$u20$core..fmt..Debug$GT$3fmt17hf1a10f2b20008cfeE
00000000 T _ZN64_$LT$core..coresimd..simd..m32x4$u20$as$u20$core..fmt..Debug$GT$3fmt17hc3f93c72579cb14dE
00000000 T _ZN64_$LT$core..coresimd..simd..m64x2$u20$as$u20$core..fmt..Debug$GT$3fmt17h88f1ecd9f41ff76dE
00000000 T _ZN64_$LT$core..coresimd..simd..m8x16$u20$as$u20$core..fmt..Debug$GT$3fmt17h2e4b4683333d8967E
00000000 T _ZN64_$LT$core..coresimd..simd..u16x2$u20$as$u20$core..fmt..Debug$GT$3fmt17h02d02f5fe1b3e800E
00000000 T _ZN64_$LT$core..coresimd..simd..u16x4$u20$as$u20$core..fmt..Debug$GT$3fmt17h7ce11a93bde970c6E
00000000 T _ZN64_$LT$core..coresimd..simd..u16x8$u20$as$u20$core..fmt..Debug$GT$3fmt17haa70637a04230c46E
00000000 T _ZN64_$LT$core..coresimd..simd..u32x2$u20$as$u20$core..fmt..Debug$GT$3fmt17h6e09345ef34b24f1E
00000000 T _ZN64_$LT$core..coresimd..simd..u32x4$u20$as$u20$core..fmt..Debug$GT$3fmt17h4e8337838f5dd535E
00000000 T _ZN64_$LT$core..coresimd..simd..u32x8$u20$as$u20$core..fmt..Debug$GT$3fmt17hcdc6edafb57f5e1cE
00000000 T _ZN64_$LT$core..coresimd..simd..u64x1$u20$as$u20$core..fmt..Debug$GT$3fmt17hfe33f65514a7899aE
00000000 T _ZN64_$LT$core..coresimd..simd..u64x2$u20$as$u20$core..fmt..Debug$GT$3fmt17h49d1bdc078adde95E
00000000 T _ZN64_$LT$core..coresimd..simd..u64x4$u20$as$u20$core..fmt..Debug$GT$3fmt17he4334517ee18fee6E
00000000 T _ZN64_$LT$core..coresimd..simd..u8x16$u20$as$u20$core..fmt..Debug$GT$3fmt17h8e70f9fd0c4bb7dbE
00000000 T _ZN64_$LT$core..coresimd..simd..u8x32$u20$as$u20$core..fmt..Debug$GT$3fmt17h97e2ee4f9c35b5ceE
00000000 T _ZN65_$LT$core..coresimd..simd..i16x16$u20$as$u20$core..fmt..Debug$GT$3fmt17h442643d1ede6668aE
00000000 T _ZN65_$LT$core..coresimd..simd..i32x16$u20$as$u20$core..fmt..Debug$GT$3fmt17h314e33361fca3d9dE
00000000 T _ZN65_$LT$core..coresimd..simd..u16x16$u20$as$u20$core..fmt..Debug$GT$3fmt17h539222bc444b7ca0E

core-87b341ced06d2d9e.core.9r1ss7xu-cgu.10.rcgu.o:
         U abort
         U anon.31c391fee95154598eab410655e56dc4.28.llvm.8755331276361445789
         U anon.31c391fee95154598eab410655e56dc4.30.llvm.8755331276361445789
         U anon.31c391fee95154598eab410655e56dc4.33.llvm.8755331276361445789
         U anon.31c391fee95154598eab410655e56dc4.34.llvm.8755331276361445789
         U anon.31c391fee95154598eab410655e56dc4.36.llvm.8755331276361445789
00000000 R anon.68a28ae35e3633ca1cf74f37b006f889.42.llvm.3784525138833777914
00000000 R anon.68a28ae35e3633ca1cf74f37b006f889.64.llvm.3784525138833777914
         U anon.81d10f071a37c3d37778e7fcc2dd259e.30.llvm.14122202228466798186
         U __ashldi3
00000000 r .Lanon.68a28ae35e3633ca1cf74f37b006f889.0
00000000 r .Lanon.68a28ae35e3633ca1cf74f37b006f889.1
00000000 r .Lanon.68a28ae35e3633ca1cf74f37b006f889.10
00000000 r .Lanon.68a28ae35e3633ca1cf74f37b006f889.100
00000000 r .Lanon.68a28ae35e3633ca1cf74f37b006f889.101
00000018 r .Lanon.68a28ae35e3633ca1cf74f37b006f889.102
00000000 r .Lanon.68a28ae35e3633ca1cf74f37b006f889.103
0000001c r .Lanon.68a28ae35e3633ca1cf74f37b006f889.104
00000000 r .Lanon.68a28ae35e3633ca1cf74f37b006f889.105
00000000 r .Lanon.68a28ae35e3633ca1cf74f37b006f889.106
00000000 r .Lanon.68a28ae35e3633ca1cf74f37b006f889.107
00000000 r .Lanon.68a28ae35e3633ca1cf74f37b006f889.108
00000000 r .Lanon.68a28ae35e3633ca1cf74f37b006f889.109
00000000 r .Lanon.68a28ae35e3633ca1cf74f37b006f889.11
00000000 r .Lanon.68a28ae35e3633ca1cf74f37b006f889.110
00000000 r .Lanon.68a28ae35e3633ca1cf74f37b006f889.111
00000000 r .Lanon.68a28ae35e3633ca1cf74f37b006f889.112
00000000 r .Lanon.68a28ae35e3633ca1cf74f37b006f889.113
00000000 r .Lanon.68a28ae35e3633ca1cf74f37b006f889.114
00000000 r .Lanon.68a28ae35e3633ca1cf74f37b006f889.115
00000018 r .Lanon.68a28ae35e3633ca1cf74f37b006f889.116
00000000 r .Lanon.68a28ae35e3633ca1cf74f37b006f889.117
00000000 r .Lanon.68a28ae35e3633ca1cf74f37b006f889.12
00000000 r .Lanon.68a28ae35e3633ca1cf74f37b006f889.13
00000000 r .Lanon.68a28ae35e3633ca1cf74f37b006f889.14
00000000 r .Lanon.68a28ae35e3633ca1cf74f37b006f889.15
00000000 r .Lanon.68a28ae35e3633ca1cf74f37b006f889.16
00000000 r .Lanon.68a28ae35e3633ca1cf74f37b006f889.17
00000000 r .Lanon.68a28ae35e3633ca1cf74f37b006f889.18
00000000 r .Lanon.68a28ae35e3633ca1cf74f37b006f889.19
00000000 r .Lanon.68a28ae35e3633ca1cf74f37b006f889.2
00000000 r .Lanon.68a28ae35e3633ca1cf74f37b006f889.20
00000000 r .Lanon.68a28ae35e3633ca1cf74f37b006f889.21
00000000 r .Lanon.68a28ae35e3633ca1cf74f37b006f889.23
00000000 r .Lanon.68a28ae35e3633ca1cf74f37b006f889.24
00000000 r .Lanon.68a28ae35e3633ca1cf74f37b006f889.25
00000000 r .Lanon.68a28ae35e3633ca1cf74f37b006f889.26
00000000 r .Lanon.68a28ae35e3633ca1cf74f37b006f889.27
00000000 r .Lanon.68a28ae35e3633ca1cf74f37b006f889.28
00000000 r .Lanon.68a28ae35e3633ca1cf74f37b006f889.29
00000000 r .Lanon.68a28ae35e3633ca1cf74f37b006f889.3
00000000 r .Lanon.68a28ae35e3633ca1cf74f37b006f889.30
00000000 r .Lanon.68a28ae35e3633ca1cf74f37b006f889.31
00000000 r .Lanon.68a28ae35e3633ca1cf74f37b006f889.32
00000000 r .Lanon.68a28ae35e3633ca1cf74f37b006f889.33
00000000 r .Lanon.68a28ae35e3633ca1cf74f37b006f889.34
00000000 r .Lanon.68a28ae35e3633ca1cf74f37b006f889.35
00000000 r .Lanon.68a28ae35e3633ca1cf74f37b006f889.36
00000000 r .Lanon.68a28ae35e3633ca1cf74f37b006f889.37
00000000 r .Lanon.68a28ae35e3633ca1cf74f37b006f889.38
00000000 r .Lanon.68a28ae35e3633ca1cf74f37b006f889.39
00000000 r .Lanon.68a28ae35e3633ca1cf74f37b006f889.4
00000000 r .Lanon.68a28ae35e3633ca1cf74f37b006f889.40
00000000 r .Lanon.68a28ae35e3633ca1cf74f37b006f889.41
00000000 r .Lanon.68a28ae35e3633ca1cf74f37b006f889.43
00000000 r .Lanon.68a28ae35e3633ca1cf74f37b006f889.44
00000000 r .Lanon.68a28ae35e3633ca1cf74f37b006f889.45
00000000 r .Lanon.68a28ae35e3633ca1cf74f37b006f889.46
00000000 r .Lanon.68a28ae35e3633ca1cf74f37b006f889.47
00000000 r .Lanon.68a28ae35e3633ca1cf74f37b006f889.48
00000000 r .Lanon.68a28ae35e3633ca1cf74f37b006f889.49
00000000 r .Lanon.68a28ae35e3633ca1cf74f37b006f889.5
00000000 r .Lanon.68a28ae35e3633ca1cf74f37b006f889.50
00000000 r .Lanon.68a28ae35e3633ca1cf74f37b006f889.51
00000000 r .Lanon.68a28ae35e3633ca1cf74f37b006f889.52
00000000 r .Lanon.68a28ae35e3633ca1cf74f37b006f889.53
00000000 r .Lanon.68a28ae35e3633ca1cf74f37b006f889.54
00000000 r .Lanon.68a28ae35e3633ca1cf74f37b006f889.55
00000000 r .Lanon.68a28ae35e3633ca1cf74f37b006f889.56
00000000 r .Lanon.68a28ae35e3633ca1cf74f37b006f889.57
00000000 r .Lanon.68a28ae35e3633ca1cf74f37b006f889.58
00000000 r .Lanon.68a28ae35e3633ca1cf74f37b006f889.59
00000000 r .Lanon.68a28ae35e3633ca1cf74f37b006f889.6
00000020 r .Lanon.68a28ae35e3633ca1cf74f37b006f889.60
00000000 r .Lanon.68a28ae35e3633ca1cf74f37b006f889.62
00000000 r .Lanon.68a28ae35e3633ca1cf74f37b006f889.63
00000000 r .Lanon.68a28ae35e3633ca1cf74f37b006f889.65
00000000 r .Lanon.68a28ae35e3633ca1cf74f37b006f889.66
00000000 r .Lanon.68a28ae35e3633ca1cf74f37b006f889.67
00000000 r .Lanon.68a28ae35e3633ca1cf74f37b006f889.68
00000000 r .Lanon.68a28ae35e3633ca1cf74f37b006f889.69
00000000 r .Lanon.68a28ae35e3633ca1cf74f37b006f889.7
00000000 r .Lanon.68a28ae35e3633ca1cf74f37b006f889.70
00000000 r .Lanon.68a28ae35e3633ca1cf74f37b006f889.71
00000004 r .Lanon.68a28ae35e3633ca1cf74f37b006f889.72
00000000 r .Lanon.68a28ae35e3633ca1cf74f37b006f889.73
00000000 r .Lanon.68a28ae35e3633ca1cf74f37b006f889.74
00000000 r .Lanon.68a28ae35e3633ca1cf74f37b006f889.75
00000000 r .Lanon.68a28ae35e3633ca1cf74f37b006f889.76
00000000 r .Lanon.68a28ae35e3633ca1cf74f37b006f889.77
00000000 r .Lanon.68a28ae35e3633ca1cf74f37b006f889.78
00000008 r .Lanon.68a28ae35e3633ca1cf74f37b006f889.79
00000000 r .Lanon.68a28ae35e3633ca1cf74f37b006f889.8
00000000 r .Lanon.68a28ae35e3633ca1cf74f37b006f889.80
00000000 r .Lanon.68a28ae35e3633ca1cf74f37b006f889.81
00000000 r .Lanon.68a28ae35e3633ca1cf74f37b006f889.82
0000000c r .Lanon.68a28ae35e3633ca1cf74f37b006f889.83
00000000 r .Lanon.68a28ae35e3633ca1cf74f37b006f889.84
00000000 r .Lanon.68a28ae35e3633ca1cf74f37b006f889.85
00000000 r .Lanon.68a28ae35e3633ca1cf74f37b006f889.86
00000010 r .Lanon.68a28ae35e3633ca1cf74f37b006f889.87
00000000 r .Lanon.68a28ae35e3633ca1cf74f37b006f889.88
00000000 r .Lanon.68a28ae35e3633ca1cf74f37b006f889.89
00000000 r .Lanon.68a28ae35e3633ca1cf74f37b006f889.9
00000000 r .Lanon.68a28ae35e3633ca1cf74f37b006f889.90
00000000 r .Lanon.68a28ae35e3633ca1cf74f37b006f889.91
00000000 r .Lanon.68a28ae35e3633ca1cf74f37b006f889.92
00000000 r .Lanon.68a28ae35e3633ca1cf74f37b006f889.93
00000008 r .Lanon.68a28ae35e3633ca1cf74f37b006f889.94
00000000 r .Lanon.68a28ae35e3633ca1cf74f37b006f889.95
00000010 r .Lanon.68a28ae35e3633ca1cf74f37b006f889.96
00000010 r .Lanon.68a28ae35e3633ca1cf74f37b006f889.97
00000000 r .Lanon.68a28ae35e3633ca1cf74f37b006f889.98
00000014 r .Lanon.68a28ae35e3633ca1cf74f37b006f889.99
         U rust_begin_unwind
00000000 r str.0
00000000 t _ZN36_$LT$T$u20$as$u20$core..any..Any$GT$11get_type_id17h38d7bd64292ade6bE
00000000 t _ZN42_$LT$$RF$T$u20$as$u20$core..fmt..Debug$GT$3fmt17h0a01e9fd8dbfa74cE
         U _ZN42_$LT$$RF$T$u20$as$u20$core..fmt..Debug$GT$3fmt17h0d0ff7b38ab303f9E
         U _ZN42_$LT$$RF$T$u20$as$u20$core..fmt..Debug$GT$3fmt17h152bb878f876d824E
         U _ZN42_$LT$$RF$T$u20$as$u20$core..fmt..Debug$GT$3fmt17h3dd42871faf1d270E
         U _ZN42_$LT$$RF$T$u20$as$u20$core..fmt..Debug$GT$3fmt17h7d1282a08b8734e0E
         U _ZN42_$LT$$RF$T$u20$as$u20$core..fmt..Debug$GT$3fmt17h7d12d9fa6e3b4690E
00000000 t _ZN42_$LT$$RF$T$u20$as$u20$core..fmt..Debug$GT$3fmt17h881b65076d0eaddaE
00000000 T _ZN42_$LT$$RF$T$u20$as$u20$core..fmt..Debug$GT$3fmt17ha5534fb9af10beddE
00000000 t _ZN42_$LT$$RF$T$u20$as$u20$core..fmt..Debug$GT$3fmt17haa64b1b5e4931a37E
00000000 T _ZN42_$LT$$RF$T$u20$as$u20$core..fmt..Debug$GT$3fmt17haab134ad6f5b64f0E
         U _ZN42_$LT$$RF$T$u20$as$u20$core..fmt..Debug$GT$3fmt17haefa60bf8c5954f0E
         U _ZN42_$LT$$RF$T$u20$as$u20$core..fmt..Debug$GT$3fmt17haf773b1f70aacb08E
         U _ZN42_$LT$$RF$T$u20$as$u20$core..fmt..Debug$GT$3fmt17hbb30bd8133600c3dE
         U _ZN42_$LT$$RF$T$u20$as$u20$core..fmt..Debug$GT$3fmt17hcda6f419c5ab6c21E
00000000 t _ZN42_$LT$$RF$T$u20$as$u20$core..fmt..Debug$GT$3fmt17he41b749c09d08541E
         U _ZN42_$LT$$RF$T$u20$as$u20$core..fmt..Debug$GT$3fmt17hea0d775ed95d904bE
         U _ZN42_$LT$$RF$T$u20$as$u20$core..fmt..Debug$GT$3fmt17hefbbd91fbf1e84ceE
         U _ZN42_$LT$$RF$T$u20$as$u20$core..fmt..Debug$GT$3fmt17hf1f6c352f5c63109E
         U _ZN44_$LT$$RF$T$u20$as$u20$core..fmt..Display$GT$3fmt17h1e371c781fcbf6abE
         U _ZN44_$LT$$RF$T$u20$as$u20$core..fmt..Display$GT$3fmt17ha84158601fd3a138E
         U _ZN44_$LT$$RF$T$u20$as$u20$core..fmt..Display$GT$3fmt17hb67c48be4f89f370E
         U _ZN4core3fmt3num52_$LT$impl$u20$core..fmt..Display$u20$for$u20$u32$GT$3fmt17h5e2a8a15e581fae7E
         U _ZN4core3fmt3num54_$LT$impl$u20$core..fmt..Display$u20$for$u20$usize$GT$3fmt17h7bc02b1ea81359c6E
         U _ZN4core3fmt5write17h1d5b0e1e227ed20cE
         U _ZN4core3fmt8builders10DebugTuple5field17hdeeb14ec9411353fE
         U _ZN4core3fmt8builders11DebugStruct5field17haa057cbf88084cceE
         U _ZN4core3fmt9Formatter3pad17hac9c222c747c13c3E
00000000 T _ZN4core3num7flt2dec7decoder6decode17h193a0612f684c03cE
00000000 T _ZN4core3num7flt2dec7decoder6decode17hec60cb9249c85293E
00000000 T _ZN4core3num7flt2dec9estimator23estimate_scaling_factor17h95f54fe06aaa2754E
00000000 t _ZN4core3ptr18real_drop_in_place17h093764964ce0ca32E
00000000 t _ZN4core3ptr18real_drop_in_place17h3b2861430dc3c142E
00000000 T _ZN4core4char7convert14ParseCharError13__description17h01cca9b4983858c4E
00000000 T _ZN4core5alloc20CannotReallocInPlace11description17h4761f5abce3c2118E
00000000 T _ZN4core5ascii14escape_default17h0ce064817a2fb7e2E
00000000 T _ZN4core5panic8Location20internal_constructor17h955b85aab77ffe90E
00000000 T _ZN4core5panic8Location4file17h1fc21549384e756dE
00000000 T _ZN4core5panic8Location4line17h066a250fd13d401bE
00000000 T _ZN4core5panic8Location6column17h95f7b2a79741c448E
00000000 T _ZN4core5panic9PanicInfo7message17h4324305b5f96a85dE
00000000 T _ZN4core5panic9PanicInfo7payload17h9b87946607046ba6E
00000000 T _ZN4core5panic9PanicInfo8location17hd44bea6c29874dc5E
00000000 T _ZN4core6option13expect_failed17hfb8f1cf1eba149cbE
00000000 T _ZN4core7unicode6tables16derived_property10Alphabetic17h456bb6237936dbd1E
00000000 T _ZN4core7unicode6tables16derived_property12XID_Continue17h148b84054296af3bE
00000000 T _ZN4core7unicode6tables16derived_property14Case_Ignorable17hfacc975f5b17962fE
00000000 T _ZN4core7unicode6tables16derived_property15Grapheme_Extend17h96143bdacf766ae3E
00000000 T _ZN4core7unicode6tables16derived_property5Cased17h82ffbd8efb7d2e57E
00000000 T _ZN4core7unicode6tables16derived_property9Lowercase17h75b0fc023a9a4427E
00000000 T _ZN4core7unicode6tables16derived_property9Uppercase17h04316b5bbf5e1c74E
00000000 T _ZN4core7unicode6tables16derived_property9XID_Start17ha2bf56e89a764d6eE
00000000 T _ZN4core7unicode6tables16general_category1N17hf39952c619436c58E
00000000 T _ZN4core7unicode6tables16general_category2Cc17h5e388fedf8656257E
00000000 T _ZN4core7unicode6tables8property11White_Space17h538535749b041f53E
00000000 T _ZN4core7unicode6tables8property19Pattern_White_Space17h9270c5fbcfc44a06E
         U _ZN4core7unicode9bool_trie8BoolTrie6lookup17hf8fc79705f167984E
00000000 T _ZN4core9panicking18panic_bounds_check17h1fc4ec65e9eda7d0E
00000000 T _ZN4core9panicking5panic17hb5d102504e882c92E
00000000 T _ZN4core9panicking9panic_fmt17hb2b57d407fcd299fE
00000000 T _ZN50_$LT$T$u20$as$u20$core..convert..From$LT$T$GT$$GT$4from17h314979d7b603277bE
00000000 T _ZN53_$LT$core..option..Option$LT$$RF$$u27$a$u20$T$GT$$GT$6cloned17h7d7d49c2d0680a66E
00000000 T _ZN53_$LT$core..option..Option$LT$$RF$$u27$a$u20$T$GT$$GT$6cloned17he854f3275f779070E
00000000 T _ZN56_$LT$core..alloc..Excess$u20$as$u20$core..fmt..Debug$GT$3fmt17h792965e4fa55af9fE
00000000 T _ZN56_$LT$core..alloc..Layout$u20$as$u20$core..fmt..Debug$GT$3fmt17h00afce3c2e889d2aE
00000000 T _ZN58_$LT$core..alloc..AllocErr$u20$as$u20$core..fmt..Debug$GT$3fmt17h6249fb8564a405eaE
00000000 T _ZN59_$LT$core..alloc..LayoutErr$u20$as$u20$core..fmt..Debug$GT$3fmt17hfc8177952ba6a783E
00000000 T _ZN60_$LT$core..alloc..AllocErr$u20$as$u20$core..fmt..Display$GT$3fmt17ha2e1a22d7a3ca3ebE
00000000 T _ZN60_$LT$core..option..NoneError$u20$as$u20$core..fmt..Debug$GT$3fmt17h5454f6b6d2d257cfE
00000000 T _ZN61_$LT$core..alloc..LayoutErr$u20$as$u20$core..fmt..Display$GT$3fmt17h13f3de85d4a85db4E
00000000 T _ZN63_$LT$core..ascii..EscapeDefault$u20$as$u20$core..fmt..Debug$GT$3fmt17hff637e1f7f7b6530E
00000000 T _ZN67_$LT$f32$u20$as$u20$core..num..flt2dec..decoder..DecodableFloat$GT$18min_pos_norm_value17h531882e99afe171aE
00000000 T _ZN67_$LT$f64$u20$as$u20$core..num..flt2dec..decoder..DecodableFloat$GT$18min_pos_norm_value17h2b6b5e1fb72fa4f7E
00000000 T _ZN70_$LT$core..alloc..CannotReallocInPlace$u20$as$u20$core..fmt..Debug$GT$3fmt17h7b8efcd788bcf4fbE
00000000 T _ZN71_$LT$core..char..convert..CharErrorKind$u20$as$u20$core..fmt..Debug$GT$3fmt17he554c3d3c041e70dE
00000000 T _ZN72_$LT$core..alloc..CannotReallocInPlace$u20$as$u20$core..fmt..Display$GT$3fmt17hb5e85ea5b48f259dE
00000000 T _ZN72_$LT$core..char..convert..ParseCharError$u20$as$u20$core..fmt..Debug$GT$3fmt17h5e37b6a23d0ba5dcE
00000000 T _ZN72_$LT$core..panic..Location$LT$$u27$a$GT$$u20$as$u20$core..fmt..Debug$GT$3fmt17h6d3165fab981aa60E
00000000 T _ZN73_$LT$core..num..flt2dec..decoder..Decoded$u20$as$u20$core..fmt..Debug$GT$3fmt17he34820b332305fe5E
00000000 T _ZN73_$LT$core..panic..PanicInfo$LT$$u27$a$GT$$u20$as$u20$core..fmt..Debug$GT$3fmt17hdbfa08df679886cbE
00000000 T _ZN74_$LT$core..char..convert..CharTryFromError$u20$as$u20$core..fmt..Debug$GT$3fmt17hb94dca79749a23e2E
00000000 T _ZN74_$LT$core..char..convert..ParseCharError$u20$as$u20$core..fmt..Display$GT$3fmt17h356cd3be59421d00E
00000000 T _ZN74_$LT$core..panic..Location$LT$$u27$_$GT$$u20$as$u20$core..fmt..Display$GT$3fmt17h024ffcc8d8cbc71dE
00000000 T _ZN75_$LT$core..panic..PanicInfo$LT$$u27$_$GT$$u20$as$u20$core..fmt..Display$GT$3fmt17h389f92ea751e0681E
00000000 T _ZN76_$LT$core..char..convert..CharTryFromError$u20$as$u20$core..fmt..Display$GT$3fmt17h7681ad9c77392b41E
00000000 T _ZN77_$LT$core..ascii..EscapeDefault$u20$as$u20$core..iter..iterator..Iterator$GT$4next17h42511d19c020c6aaE
00000000 T _ZN77_$LT$core..ascii..EscapeDefault$u20$as$u20$core..iter..iterator..Iterator$GT$9size_hint17h0f5c3f41e26c34b0E
00000000 T _ZN77_$LT$core..num..flt2dec..decoder..FullDecoded$u20$as$u20$core..fmt..Debug$GT$3fmt17h48a4543063fb3d09E
00000000 T _ZN86_$LT$core..ascii..EscapeDefault$u20$as$u20$core..iter..traits..DoubleEndedIterator$GT$9next_back17h2d3286dd13df17d5E

core-87b341ced06d2d9e.core.9r1ss7xu-cgu.11.rcgu.o:
         U abort
         U anon.31c391fee95154598eab410655e56dc4.28.llvm.8755331276361445789
         U anon.31c391fee95154598eab410655e56dc4.30.llvm.8755331276361445789
         U anon.31c391fee95154598eab410655e56dc4.33.llvm.8755331276361445789
         U anon.31c391fee95154598eab410655e56dc4.34.llvm.8755331276361445789
         U anon.31c391fee95154598eab410655e56dc4.36.llvm.8755331276361445789
         U anon.56bd365d1d643971001a5ca83dacdd28.0.llvm.11606327675864989281
         U anon.56bd365d1d643971001a5ca83dacdd28.14.llvm.11606327675864989281
         U anon.56bd365d1d643971001a5ca83dacdd28.15.llvm.11606327675864989281
         U anon.e6ba466ce09519f01a5076be0561ea9f.15.llvm.17765535580013292967
         U anon.e6ba466ce09519f01a5076be0561ea9f.16.llvm.17765535580013292967
00000000 R anon.f2292d77e9643a6bc1b9ed201bcd5392.11.llvm.10084963909090440001
00000000 R anon.f2292d77e9643a6bc1b9ed201bcd5392.12.llvm.10084963909090440001
00000000 R anon.f2292d77e9643a6bc1b9ed201bcd5392.13.llvm.10084963909090440001
00000000 R anon.f2292d77e9643a6bc1b9ed201bcd5392.14.llvm.10084963909090440001
00000000 R anon.f2292d77e9643a6bc1b9ed201bcd5392.15.llvm.10084963909090440001
00000000 R anon.f2292d77e9643a6bc1b9ed201bcd5392.16.llvm.10084963909090440001
00000000 R anon.f2292d77e9643a6bc1b9ed201bcd5392.2.llvm.10084963909090440001
00000000 R anon.f2292d77e9643a6bc1b9ed201bcd5392.6.llvm.10084963909090440001
00000000 R anon.f2292d77e9643a6bc1b9ed201bcd5392.7.llvm.10084963909090440001
         U __ashldi3
00000000 r .Lanon.f2292d77e9643a6bc1b9ed201bcd5392.0
00000000 r .Lanon.f2292d77e9643a6bc1b9ed201bcd5392.1
00000000 r .Lanon.f2292d77e9643a6bc1b9ed201bcd5392.10
00000000 r .Lanon.f2292d77e9643a6bc1b9ed201bcd5392.17
00000000 r .Lanon.f2292d77e9643a6bc1b9ed201bcd5392.18
00000000 r .Lanon.f2292d77e9643a6bc1b9ed201bcd5392.19
00000000 r .Lanon.f2292d77e9643a6bc1b9ed201bcd5392.20
00000000 r .Lanon.f2292d77e9643a6bc1b9ed201bcd5392.21
00000000 r .Lanon.f2292d77e9643a6bc1b9ed201bcd5392.22
00000000 r .Lanon.f2292d77e9643a6bc1b9ed201bcd5392.23
00000000 r .Lanon.f2292d77e9643a6bc1b9ed201bcd5392.24
00000000 r .Lanon.f2292d77e9643a6bc1b9ed201bcd5392.25
00000000 r .Lanon.f2292d77e9643a6bc1b9ed201bcd5392.26
00000000 r .Lanon.f2292d77e9643a6bc1b9ed201bcd5392.27
00000000 r .Lanon.f2292d77e9643a6bc1b9ed201bcd5392.28
00000000 r .Lanon.f2292d77e9643a6bc1b9ed201bcd5392.29
00000000 r .Lanon.f2292d77e9643a6bc1b9ed201bcd5392.3
00000000 r .Lanon.f2292d77e9643a6bc1b9ed201bcd5392.30
00000000 r .Lanon.f2292d77e9643a6bc1b9ed201bcd5392.31
00000000 r .Lanon.f2292d77e9643a6bc1b9ed201bcd5392.32
00000000 r .Lanon.f2292d77e9643a6bc1b9ed201bcd5392.33
00000000 r .Lanon.f2292d77e9643a6bc1b9ed201bcd5392.34
00000000 r .Lanon.f2292d77e9643a6bc1b9ed201bcd5392.35
00000000 r .Lanon.f2292d77e9643a6bc1b9ed201bcd5392.36
00000000 r .Lanon.f2292d77e9643a6bc1b9ed201bcd5392.4
00000000 r .Lanon.f2292d77e9643a6bc1b9ed201bcd5392.5
00000000 r .Lanon.f2292d77e9643a6bc1b9ed201bcd5392.8
00000000 r .Lanon.f2292d77e9643a6bc1b9ed201bcd5392.9
         U __lshrdi3
         U _ZN42_$LT$$RF$T$u20$as$u20$core..fmt..Debug$GT$3fmt17h0079597495540b08E
         U _ZN42_$LT$$RF$T$u20$as$u20$core..fmt..Debug$GT$3fmt17h3dd42871faf1d270E
         U _ZN42_$LT$$RF$T$u20$as$u20$core..fmt..Debug$GT$3fmt17hbb30bd8133600c3dE
         U _ZN42_$LT$$RF$T$u20$as$u20$core..fmt..Debug$GT$3fmt17hcda6f419c5ab6c21E
         U _ZN42_$LT$$RF$T$u20$as$u20$core..fmt..Debug$GT$3fmt17hea0d775ed95d904bE
         U _ZN4core3fmt3num52_$LT$impl$u20$core..fmt..Display$u20$for$u20$i16$GT$3fmt17hfdac02f9530428ffE
         U _ZN4core3fmt3num52_$LT$impl$u20$core..fmt..Display$u20$for$u20$i32$GT$3fmt17h44ac88cb8d5161b5E
         U _ZN4core3fmt3num54_$LT$impl$u20$core..fmt..Display$u20$for$u20$isize$GT$3fmt17h2581f2db74906d09E
         U _ZN4core3fmt8builders10DebugTuple5field17hdeeb14ec9411353fE
         U _ZN4core3fmt8builders11DebugStruct5field17haa057cbf88084cceE
         U _ZN4core3fmt9Formatter12pad_integral17hd956203cec70dfa5E
         U _ZN4core3fmt9Formatter3pad17hac9c222c747c13c3E
00000000 T _ZN4core3num9diy_float2Fp12normalize_to17h19ab3f1e7ef41255E
00000000 T _ZN4core3num9diy_float2Fp3mul17h41c2265e0e7e6f60E
00000000 T _ZN4core3num9diy_float2Fp9normalize17h470fcf58dcf5af86E
00000000 t _ZN4core3ptr18real_drop_in_place17h60bc9c6793d2d1c0E
00000000 T _ZN4core5array69_$LT$impl$u20$core..fmt..Debug$u20$for$u20$$u5b$T$u3b$$u20$_$u5d$$GT$3fmt17h807320ee8f763441E
         U _ZN4core5slice20slice_index_len_fail17h1de6582f5b25970aE
         U _ZN4core5slice22slice_index_order_fail17h5c97dc70a1ee6408E
00000000 T _ZN4core5slice6memchr6memchr17ha3f2a206bb842f35E
00000000 T _ZN4core5slice6memchr7memrchr17hc67b07018513a94aE
00000000 T _ZN4core7unicode6tables11conversions8to_lower17hda72eb568603eb07E
00000000 T _ZN4core7unicode6tables11conversions8to_upper17h9105cb99eabab53aE
00000000 T _ZN4core7unicode9printable12is_printable17hd941339eb002d04aE
00000000 T _ZN4core7unicode9printable5check17h1ee741988245a625E.llvm.10084963909090440001
         U _ZN4core9panicking5panic17hb5d102504e882c92E
         U _ZN4core9panicking9panic_fmt17hb2b57d407fcd299fE
00000000 T _ZN61_$LT$core..num..diy_float..Fp$u20$as$u20$core..fmt..Debug$GT$3fmt17h84017957107c0d67E
00000000 T _ZN65_$LT$core..sync..atomic..AtomicI8$u20$as$u20$core..fmt..Debug$GT$3fmt17hc6a147d67740bd76E
00000000 T _ZN65_$LT$core..sync..atomic..AtomicU8$u20$as$u20$core..fmt..Debug$GT$3fmt17h41f5705d82d15cf4E
00000000 T _ZN65_$LT$core..sync..atomic..Ordering$u20$as$u20$core..fmt..Debug$GT$3fmt17h00f8da0fa6dd3a84E
00000000 T _ZN66_$LT$core..sync..atomic..AtomicI16$u20$as$u20$core..fmt..Debug$GT$3fmt17hd9e631c0778a27cfE
00000000 T _ZN66_$LT$core..sync..atomic..AtomicI32$u20$as$u20$core..fmt..Debug$GT$3fmt17hdbde8b0d60126d84E
00000000 T _ZN66_$LT$core..sync..atomic..AtomicU16$u20$as$u20$core..fmt..Debug$GT$3fmt17h5e452fddb8144c4fE
00000000 T _ZN66_$LT$core..sync..atomic..AtomicU32$u20$as$u20$core..fmt..Debug$GT$3fmt17h841ffd1294befe6dE
00000000 T _ZN67_$LT$core..array..TryFromSliceError$u20$as$u20$core..fmt..Debug$GT$3fmt17h017118511bee8c53E
00000000 T _ZN67_$LT$core..sync..atomic..AtomicBool$u20$as$u20$core..fmt..Debug$GT$3fmt17h0e9a79324d9f5e3eE
00000000 T _ZN68_$LT$core..sync..atomic..AtomicIsize$u20$as$u20$core..fmt..Debug$GT$3fmt17h36a7f43afb93a506E
00000000 T _ZN68_$LT$core..sync..atomic..AtomicUsize$u20$as$u20$core..fmt..Debug$GT$3fmt17h6571a35545e865d1E
00000000 T _ZN71_$LT$core..sync..atomic..AtomicI8$u20$as$u20$core..default..Default$GT$7default17ha624cd653660cb8fE
00000000 T _ZN71_$LT$core..sync..atomic..AtomicU8$u20$as$u20$core..default..Default$GT$7default17h8289e9af05b272f2E
00000000 T _ZN72_$LT$core..sync..atomic..AtomicI16$u20$as$u20$core..default..Default$GT$7default17h8498d777592d796bE
00000000 T _ZN72_$LT$core..sync..atomic..AtomicI32$u20$as$u20$core..default..Default$GT$7default17h5fb8d4ea9bffe26fE
00000000 T _ZN72_$LT$core..sync..atomic..AtomicU16$u20$as$u20$core..default..Default$GT$7default17h299c8a57392bdd65E
00000000 T _ZN72_$LT$core..sync..atomic..AtomicU32$u20$as$u20$core..default..Default$GT$7default17ha00d74682bc2dbeeE
00000000 T _ZN73_$LT$core..sync..atomic..AtomicBool$u20$as$u20$core..default..Default$GT$7default17he34958fd43fde149E
00000000 T _ZN74_$LT$core..sync..atomic..AtomicIsize$u20$as$u20$core..default..Default$GT$7default17hb85103e84dfaa6b0E
00000000 T _ZN74_$LT$core..sync..atomic..AtomicUsize$u20$as$u20$core..default..Default$GT$7default17h0465942b5cd40befE
00000000 T _ZN75_$LT$core..unicode..version..UnicodeVersion$u20$as$u20$core..fmt..Debug$GT$3fmt17ha13674b8fd1cc8f0E

core-87b341ced06d2d9e.core.9r1ss7xu-cgu.12.rcgu.o:
         U abort
         U anon.f2292d77e9643a6bc1b9ed201bcd5392.2.llvm.10084963909090440001
         U anon.f2292d77e9643a6bc1b9ed201bcd5392.6.llvm.10084963909090440001
         U anon.f2292d77e9643a6bc1b9ed201bcd5392.7.llvm.10084963909090440001
         U __ashldi3
00000000 r .Lanon.33da52a737196f2775c9f6054eb89226.0
00000000 r .Lanon.33da52a737196f2775c9f6054eb89226.1
00000000 r .Lanon.33da52a737196f2775c9f6054eb89226.10
00000000 r .Lanon.33da52a737196f2775c9f6054eb89226.11
00000000 r .Lanon.33da52a737196f2775c9f6054eb89226.12
00000000 r .Lanon.33da52a737196f2775c9f6054eb89226.13
00000000 r .Lanon.33da52a737196f2775c9f6054eb89226.14
00000000 r .Lanon.33da52a737196f2775c9f6054eb89226.15
00000000 r .Lanon.33da52a737196f2775c9f6054eb89226.16
00000000 r .Lanon.33da52a737196f2775c9f6054eb89226.17
00000000 r .Lanon.33da52a737196f2775c9f6054eb89226.18
00000000 r .Lanon.33da52a737196f2775c9f6054eb89226.19
00000000 r .Lanon.33da52a737196f2775c9f6054eb89226.2
00000000 r .Lanon.33da52a737196f2775c9f6054eb89226.20
00000000 r .Lanon.33da52a737196f2775c9f6054eb89226.21
00000000 r .Lanon.33da52a737196f2775c9f6054eb89226.22
00000000 r .Lanon.33da52a737196f2775c9f6054eb89226.23
00000000 r .Lanon.33da52a737196f2775c9f6054eb89226.24
00000000 r .Lanon.33da52a737196f2775c9f6054eb89226.25
00000000 r .Lanon.33da52a737196f2775c9f6054eb89226.26
00000000 r .Lanon.33da52a737196f2775c9f6054eb89226.3
00000000 r .Lanon.33da52a737196f2775c9f6054eb89226.4
00000000 r .Lanon.33da52a737196f2775c9f6054eb89226.5
00000000 r .Lanon.33da52a737196f2775c9f6054eb89226.6
00000000 r .Lanon.33da52a737196f2775c9f6054eb89226.7
00000000 r .Lanon.33da52a737196f2775c9f6054eb89226.8
00000000 r .Lanon.33da52a737196f2775c9f6054eb89226.9
         U __lshrdi3
00000000 r str.0
00000000 r str.2
         U __udivdi3
         U _ZN42_$LT$$RF$T$u20$as$u20$core..fmt..Debug$GT$3fmt17hea0d775ed95d904bE
         U _ZN4core3num7flt2dec8round_up17hf48a54762e2e56a4E
00000000 R _ZN4core3num7flt2dec8strategy5grisu12CACHED_POW1017h019f02f90bd7a116E
00000000 T _ZN4core3num7flt2dec8strategy5grisu12cached_power17h8d8c76ed77aecb66E
00000000 T _ZN4core3num7flt2dec8strategy5grisu12format_exact17h1afd1de0b918d3acE
00000000 T _ZN4core3num7flt2dec8strategy5grisu15format_shortest17h946749dbf5e94169E
00000000 T _ZN4core3num7flt2dec8strategy5grisu16format_exact_opt17hbfff2227195816d2E
00000000 T _ZN4core3num7flt2dec8strategy5grisu19format_shortest_opt17hf67f602f2ead720bE
00000000 T _ZN4core3num7flt2dec8strategy5grisu22max_pow10_no_more_than17h6a6b3422bd1acdafE
         U _ZN4core3num7flt2dec8strategy6dragon12format_exact17hb990c55d1c39d75eE
         U _ZN4core3num7flt2dec8strategy6dragon15format_shortest17h6e930fbe117b2aa6E
         U _ZN4core5slice20slice_index_len_fail17h1de6582f5b25970aE
         U _ZN4core9panicking18panic_bounds_check17h1fc4ec65e9eda7d0E
         U _ZN4core9panicking5panic17hb5d102504e882c92E
         U _ZN4core9panicking9panic_fmt17hb2b57d407fcd299fE

core-87b341ced06d2d9e.core.9r1ss7xu-cgu.13.rcgu.o:
         U abort
         U anon.31c391fee95154598eab410655e56dc4.28.llvm.8755331276361445789
         U anon.31c391fee95154598eab410655e56dc4.30.llvm.8755331276361445789
         U anon.31c391fee95154598eab410655e56dc4.33.llvm.8755331276361445789
         U anon.31c391fee95154598eab410655e56dc4.34.llvm.8755331276361445789
         U anon.31c391fee95154598eab410655e56dc4.36.llvm.8755331276361445789
         U anon.81d10f071a37c3d37778e7fcc2dd259e.5.llvm.14122202228466798186
         U anon.c5d92e35bb314b2a65a5cdebb17cf7ca.2.llvm.6291908229003587561
00000000 R anon.e5298cbd45f853375a4f795d79488767.18.llvm.15993801668043114076
00000000 R anon.e5298cbd45f853375a4f795d79488767.20.llvm.15993801668043114076
00000000 R anon.e5298cbd45f853375a4f795d79488767.21.llvm.15993801668043114076
00000000 R anon.e5298cbd45f853375a4f795d79488767.23.llvm.15993801668043114076
         U anon.e6ba466ce09519f01a5076be0561ea9f.15.llvm.17765535580013292967
         U anon.e6ba466ce09519f01a5076be0561ea9f.16.llvm.17765535580013292967
         U __floatundidf
         U __floatundisf
00000000 r .Lanon.e5298cbd45f853375a4f795d79488767.0
00000000 r .Lanon.e5298cbd45f853375a4f795d79488767.1
00000000 r .Lanon.e5298cbd45f853375a4f795d79488767.10
00000000 r .Lanon.e5298cbd45f853375a4f795d79488767.11
00000000 r .Lanon.e5298cbd45f853375a4f795d79488767.12
00000000 r .Lanon.e5298cbd45f853375a4f795d79488767.13
00000000 r .Lanon.e5298cbd45f853375a4f795d79488767.14
00000000 r .Lanon.e5298cbd45f853375a4f795d79488767.15
00000000 r .Lanon.e5298cbd45f853375a4f795d79488767.16
00000000 r .Lanon.e5298cbd45f853375a4f795d79488767.17
00000000 r .Lanon.e5298cbd45f853375a4f795d79488767.19
00000000 r .Lanon.e5298cbd45f853375a4f795d79488767.2
00000000 r .Lanon.e5298cbd45f853375a4f795d79488767.22
00000000 r .Lanon.e5298cbd45f853375a4f795d79488767.24
00000000 r .Lanon.e5298cbd45f853375a4f795d79488767.25
00000000 r .Lanon.e5298cbd45f853375a4f795d79488767.26
00000000 r .Lanon.e5298cbd45f853375a4f795d79488767.27
00000000 r .Lanon.e5298cbd45f853375a4f795d79488767.28
00000000 r .Lanon.e5298cbd45f853375a4f795d79488767.29
00000000 r .Lanon.e5298cbd45f853375a4f795d79488767.3
00000000 r .Lanon.e5298cbd45f853375a4f795d79488767.30
00000000 r .Lanon.e5298cbd45f853375a4f795d79488767.31
00000000 r .Lanon.e5298cbd45f853375a4f795d79488767.32
00000000 r .Lanon.e5298cbd45f853375a4f795d79488767.33
00000000 r .Lanon.e5298cbd45f853375a4f795d79488767.34
00000000 r .Lanon.e5298cbd45f853375a4f795d79488767.35
00000000 r .Lanon.e5298cbd45f853375a4f795d79488767.36
00000000 r .Lanon.e5298cbd45f853375a4f795d79488767.37
00000000 r .Lanon.e5298cbd45f853375a4f795d79488767.38
00000000 r .Lanon.e5298cbd45f853375a4f795d79488767.39
00000000 r .Lanon.e5298cbd45f853375a4f795d79488767.4
00000000 r .Lanon.e5298cbd45f853375a4f795d79488767.40
00000004 r .Lanon.e5298cbd45f853375a4f795d79488767.41
00000000 r .Lanon.e5298cbd45f853375a4f795d79488767.42
00000000 r .Lanon.e5298cbd45f853375a4f795d79488767.43
00000000 r .Lanon.e5298cbd45f853375a4f795d79488767.44
00000008 r .Lanon.e5298cbd45f853375a4f795d79488767.45
00000000 r .Lanon.e5298cbd45f853375a4f795d79488767.46
00000000 r .Lanon.e5298cbd45f853375a4f795d79488767.47
00000000 r .Lanon.e5298cbd45f853375a4f795d79488767.48
00000000 r .Lanon.e5298cbd45f853375a4f795d79488767.49
00000000 r .Lanon.e5298cbd45f853375a4f795d79488767.5
00000000 r .Lanon.e5298cbd45f853375a4f795d79488767.6
00000000 r .Lanon.e5298cbd45f853375a4f795d79488767.7
00000000 r .Lanon.e5298cbd45f853375a4f795d79488767.8
00000000 r .Lanon.e5298cbd45f853375a4f795d79488767.9
         U memcmp
         U memcpy
00000000 r str.0
00000000 r str.1
00000000 r str.2
00000000 T _ZN100_$LT$core..slice..Iter$LT$$u27$a$C$$u20$T$GT$$u20$as$u20$core..iter_private..TrustedRandomAccess$GT$13get_unchecked17h0d36294e170d3253E
00000000 T _ZN100_$LT$core..slice..Iter$LT$$u27$a$C$$u20$T$GT$$u20$as$u20$core..iter_private..TrustedRandomAccess$GT$13get_unchecked17h61498fe0afd7da65E
00000000 T _ZN100_$LT$core..slice..Iter$LT$$u27$a$C$$u20$T$GT$$u20$as$u20$core..iter_private..TrustedRandomAccess$GT$13get_unchecked17hf318ec7a4264f2b5E
00000000 T _ZN100_$LT$core..slice..Iter$LT$$u27$a$C$$u20$T$GT$$u20$as$u20$core..iter_private..TrustedRandomAccess$GT$13get_unchecked17hf8165930e3d08113E
00000000 T _ZN100_$LT$core..slice..Iter$LT$$u27$a$C$$u20$T$GT$$u20$as$u20$core..iter_private..TrustedRandomAccess$GT$13get_unchecked17hf83a3056a5512178E
00000000 T _ZN100_$LT$core..slice..Iter$LT$$u27$a$C$$u20$T$GT$$u20$as$u20$core..iter_private..TrustedRandomAccess$GT$20may_have_side_effect17hb8aefe8a776293faE
00000000 T _ZN100_$LT$core..slice..Iter$LT$$u27$a$C$$u20$T$GT$$u20$as$u20$core..iter_private..TrustedRandomAccess$GT$20may_have_side_effect17hce18c63ca4b82b95E
00000000 T _ZN103_$LT$core..slice..IterMut$LT$$u27$a$C$$u20$T$GT$$u20$as$u20$core..iter_private..TrustedRandomAccess$GT$13get_unchecked17h1cf4a96ea83bccabE
00000000 T _ZN103_$LT$core..slice..IterMut$LT$$u27$a$C$$u20$T$GT$$u20$as$u20$core..iter_private..TrustedRandomAccess$GT$13get_unchecked17hc546dcfd93d06b76E
00000000 T _ZN103_$LT$core..slice..IterMut$LT$$u27$a$C$$u20$T$GT$$u20$as$u20$core..iter_private..TrustedRandomAccess$GT$20may_have_side_effect17h146589dc14192a7bE
00000000 T _ZN103_$LT$core..slice..IterMut$LT$$u27$a$C$$u20$T$GT$$u20$as$u20$core..iter_private..TrustedRandomAccess$GT$20may_have_side_effect17h42742eea0a2cbbb9E
00000000 t _ZN41_$LT$bool$u20$as$u20$core..fmt..Debug$GT$3fmt17hf7e1f9036ee1a5a7E
         U _ZN42_$LT$$RF$T$u20$as$u20$core..fmt..Debug$GT$3fmt17h0079597495540b08E
         U _ZN42_$LT$$RF$T$u20$as$u20$core..fmt..Debug$GT$3fmt17h0d0ff7b38ab303f9E
         U _ZN42_$LT$$RF$T$u20$as$u20$core..fmt..Debug$GT$3fmt17hbb30bd8133600c3dE
00000000 T _ZN42_$LT$$RF$T$u20$as$u20$core..fmt..Debug$GT$3fmt17hd676f10250b507c5E
         U _ZN42_$LT$$RF$T$u20$as$u20$core..fmt..Debug$GT$3fmt17hea0d775ed95d904bE
00000000 t _ZN42_$LT$$RF$T$u20$as$u20$core..fmt..Debug$GT$3fmt17hee440f655b804888E
00000000 T _ZN49_$LT$i8$u20$as$u20$core..slice..SliceContains$GT$14slice_contains17h3ec41b42de749113E
00000000 T _ZN49_$LT$u8$u20$as$u20$core..slice..SliceContains$GT$14slice_contains17h2be6139f9c237a49E
         U _ZN4core3fmt3num54_$LT$impl$u20$core..fmt..Display$u20$for$u20$usize$GT$3fmt17h7bc02b1ea81359c6E
         U _ZN4core3fmt8builders10DebugTuple5field17hdeeb14ec9411353fE
         U _ZN4core3fmt8builders11DebugStruct5field17haa057cbf88084cceE
         U _ZN4core3fmt9Formatter3pad17hac9c222c747c13c3E
         U _ZN4core3num6bignum8Big32x408mul_pow217hb43065941df1350fE
         U _ZN4core3num6bignum8Big32x408mul_pow517h723bd448021a4d0fE
00000000 T _ZN4core3num7dec2flt11pfe_invalid17hc5506d5554214957E
00000000 T _ZN4core3num7dec2flt12extract_sign17hbc44e61da9c0a66fE
00000000 T _ZN4core3num7dec2flt15ParseFloatError13__description17h8dec307595867d50E
00000000 T _ZN4core3num7dec2flt25bound_intermediate_digits17hef2e5b12dabb19a5E
00000000 T _ZN4core3num7dec2flt5rawfp8Unpacked3new17h1bd963b383dde520E
00000000 T _ZN4core3num7dec2flt5rawfp9big_to_fp17h76f7138ffb9ede1fE
00000000 T _ZN4core3num7dec2flt9algorithm10make_ratio17h953bbd4507f77eefE
00000000 T _ZN4core3num7dec2flt9algorithm12power_of_ten17h9a69010f241e7ef9E
00000000 T _ZN4core3num7dec2flt9pfe_empty17h9902b1d25cdd51aaE
00000000 t _ZN4core3ptr18real_drop_in_place17h597561ffaece627dE
00000000 t _ZN4core3ptr18real_drop_in_place17h60bc9c6793d2d1c0E
00000000 t _ZN4core3ptr18real_drop_in_place17ha78c120c7164b64fE
         U _ZN4core3str16slice_error_fail17h225490166b88293dE
00000000 t _ZN4core3str6traits105_$LT$impl$u20$core..slice..SliceIndex$LT$str$GT$$u20$for$u20$core..ops..range..RangeFrom$LT$usize$GT$$GT$5index28_$u7b$$u7b$closure$u7d$$u7d$17he0178946b78cc7b9E
00000000 T _ZN4core4iter8iterator8Iterator6cloned17h09634d5e50ce96baE
00000000 T _ZN4core4iter8iterator8Iterator6cloned17hf0e05e63435faf92E
00000000 T _ZN4core5slice20slice_index_len_fail17h1de6582f5b25970aE
00000000 T _ZN4core5slice22slice_index_order_fail17h5c97dc70a1ee6408E
00000000 T _ZN4core5slice25slice_index_overflow_fail17h65648247759765c2E
00000000 T _ZN4core5slice29_$LT$impl$u20$$u5b$T$u5d$$GT$15copy_from_slice17h84abbc21e7dc30e8E
00000000 T _ZN4core5slice29_$LT$impl$u20$$u5b$T$u5d$$GT$8align_to17h4ff28facba07165fE
         U _ZN4core5slice6memchr6memchr17ha3f2a206bb842f35E
00000000 T _ZN4core5slice81_$LT$impl$u20$core..cmp..PartialEq$LT$$u5b$B$u5d$$GT$$u20$for$u20$$u5b$A$u5d$$GT$2eq17h1f9e12a2962dea6dE
00000000 T _ZN4core5slice81_$LT$impl$u20$core..cmp..PartialEq$LT$$u5b$B$u5d$$GT$$u20$for$u20$$u5b$A$u5d$$GT$2eq17h9383ee0aca1b65c3E
00000000 T _ZN4core5slice89_$LT$impl$u20$core..iter..traits..IntoIterator$u20$for$u20$$RF$$u27$a$u20$$u5b$T$u5d$$GT$9into_iter17h284ec68417a3fbe6E
00000000 T _ZN4core5slice89_$LT$impl$u20$core..iter..traits..IntoIterator$u20$for$u20$$RF$$u27$a$u20$$u5b$T$u5d$$GT$9into_iter17h5a78a6634fb92cc5E
00000000 T _ZN4core5slice89_$LT$impl$u20$core..iter..traits..IntoIterator$u20$for$u20$$RF$$u27$a$u20$$u5b$T$u5d$$GT$9into_iter17hb384ca1b6805fb27E
00000000 T _ZN4core5slice97_$LT$impl$u20$core..iter..traits..IntoIterator$u20$for$u20$$RF$$u27$a$u20$mut$u20$$u5b$T$u5d$$GT$9into_iter17h8cc07a99fe5e0202E
00000000 T _ZN4core5slice97_$LT$impl$u20$core..iter..traits..IntoIterator$u20$for$u20$$RF$$u27$a$u20$mut$u20$$u5b$T$u5d$$GT$9into_iter17hd8a145e673404e95E
         U _ZN4core9panicking18panic_bounds_check17h1fc4ec65e9eda7d0E
         U _ZN4core9panicking5panic17hb5d102504e882c92E
         U _ZN4core9panicking9panic_fmt17hb2b57d407fcd299fE
00000000 T _ZN54_$LT$I$u20$as$u20$core..iter..traits..IntoIterator$GT$9into_iter17h54f68f214c92dedbE
00000000 T _ZN54_$LT$I$u20$as$u20$core..iter..traits..IntoIterator$GT$9into_iter17h86883bac3eae0561E
00000000 T _ZN54_$LT$I$u20$as$u20$core..iter..traits..IntoIterator$GT$9into_iter17hc06faf7fdd759e2cE
00000000 T _ZN59_$LT$f32$u20$as$u20$core..num..dec2flt..rawfp..RawFloat$GT$14integer_decode17h5c826cea55b8722cE
00000000 T _ZN59_$LT$f32$u20$as$u20$core..num..dec2flt..rawfp..RawFloat$GT$16short_fast_pow1017hb1604ff06b434179E
00000000 T _ZN59_$LT$f32$u20$as$u20$core..num..dec2flt..rawfp..RawFloat$GT$6unpack17h99212b34363b8276E
00000000 T _ZN59_$LT$f32$u20$as$u20$core..num..dec2flt..rawfp..RawFloat$GT$7to_bits17h0c8ee11c8f5e7deeE
00000000 T _ZN59_$LT$f32$u20$as$u20$core..num..dec2flt..rawfp..RawFloat$GT$8classify17h1d697dfbd6bd4705E
00000000 T _ZN59_$LT$f32$u20$as$u20$core..num..dec2flt..rawfp..RawFloat$GT$8from_int17h2e0a715939f6ee41E
00000000 T _ZN59_$LT$f32$u20$as$u20$core..num..dec2flt..rawfp..RawFloat$GT$9from_bits17heca1189b96baf339E
00000000 T _ZN59_$LT$f64$u20$as$u20$core..num..dec2flt..rawfp..RawFloat$GT$14integer_decode17hc8fccce02a2e7a7eE
00000000 T _ZN59_$LT$f64$u20$as$u20$core..num..dec2flt..rawfp..RawFloat$GT$16short_fast_pow1017hb209c67cdf1e0fbcE
00000000 T _ZN59_$LT$f64$u20$as$u20$core..num..dec2flt..rawfp..RawFloat$GT$6unpack17h246aa0e247ecb198E
00000000 T _ZN59_$LT$f64$u20$as$u20$core..num..dec2flt..rawfp..RawFloat$GT$7to_bits17h0a0efe8f8b8ad319E
00000000 T _ZN59_$LT$f64$u20$as$u20$core..num..dec2flt..rawfp..RawFloat$GT$8classify17h09c7dc2be0a1b905E
00000000 T _ZN59_$LT$f64$u20$as$u20$core..num..dec2flt..rawfp..RawFloat$GT$8from_int17he9242b1dafb3e934E
00000000 T _ZN59_$LT$f64$u20$as$u20$core..num..dec2flt..rawfp..RawFloat$GT$9from_bits17hd276e83dae5defefE
00000000 T _ZN71_$LT$core..num..dec2flt..FloatErrorKind$u20$as$u20$core..fmt..Debug$GT$3fmt17hc856c18ce76a7459E
00000000 T _ZN72_$LT$core..num..dec2flt..ParseFloatError$u20$as$u20$core..fmt..Debug$GT$3fmt17h9244524d75af1a90E
00000000 T _ZN72_$LT$core..num..dec2flt..rawfp..Unpacked$u20$as$u20$core..fmt..Debug$GT$3fmt17hc2330f5b7696589dE
         U _ZN73_$LT$core..fmt..Arguments$LT$$u27$_$GT$$u20$as$u20$core..fmt..Display$GT$3fmt17h7b39b6637f67df16E
00000000 T _ZN74_$LT$core..num..dec2flt..ParseFloatError$u20$as$u20$core..fmt..Display$GT$3fmt17h23cdd9274cc10d77E
         U _ZN75_$LT$core..iter..Rev$LT$I$GT$$u20$as$u20$core..iter..iterator..Iterator$GT$8try_fold17h3d24ec21f712f691E
00000000 T _ZN79_$LT$core..slice..Iter$LT$$u27$_$C$$u20$T$GT$$u20$as$u20$core..clone..Clone$GT$5clone17h2181b0dd7b33bbc0E
00000000 T _ZN87_$LT$core..slice..Split$LT$$u27$_$C$$u20$T$C$$u20$P$GT$$u20$as$u20$core..fmt..Debug$GT$3fmt17h3ac002890ba41c86E

core-87b341ced06d2d9e.core.9r1ss7xu-cgu.14.rcgu.o:
         U abort
         U anon.31c391fee95154598eab410655e56dc4.28.llvm.8755331276361445789
         U anon.31c391fee95154598eab410655e56dc4.30.llvm.8755331276361445789
         U anon.31c391fee95154598eab410655e56dc4.33.llvm.8755331276361445789
         U anon.31c391fee95154598eab410655e56dc4.34.llvm.8755331276361445789
         U anon.31c391fee95154598eab410655e56dc4.36.llvm.8755331276361445789
         U anon.56bd365d1d643971001a5ca83dacdd28.0.llvm.11606327675864989281
         U anon.56bd365d1d643971001a5ca83dacdd28.14.llvm.11606327675864989281
         U anon.56bd365d1d643971001a5ca83dacdd28.15.llvm.11606327675864989281
         U anon.68a28ae35e3633ca1cf74f37b006f889.64.llvm.3784525138833777914
         U anon.81d10f071a37c3d37778e7fcc2dd259e.30.llvm.14122202228466798186
         U anon.e6ba466ce09519f01a5076be0561ea9f.15.llvm.17765535580013292967
         U anon.e6ba466ce09519f01a5076be0561ea9f.16.llvm.17765535580013292967
         U __ashldi3
00000000 r .Lanon.68b4015bf5139aeee15a5ba917de25c7.0
00000000 r .Lanon.68b4015bf5139aeee15a5ba917de25c7.1
00000000 r .Lanon.68b4015bf5139aeee15a5ba917de25c7.10
00000000 r .Lanon.68b4015bf5139aeee15a5ba917de25c7.11
00000000 r .Lanon.68b4015bf5139aeee15a5ba917de25c7.12
00000000 r .Lanon.68b4015bf5139aeee15a5ba917de25c7.13
00000000 r .Lanon.68b4015bf5139aeee15a5ba917de25c7.14
00000000 r .Lanon.68b4015bf5139aeee15a5ba917de25c7.15
00000000 r .Lanon.68b4015bf5139aeee15a5ba917de25c7.16
00000000 r .Lanon.68b4015bf5139aeee15a5ba917de25c7.17
00000000 r .Lanon.68b4015bf5139aeee15a5ba917de25c7.18
00000000 r .Lanon.68b4015bf5139aeee15a5ba917de25c7.19
00000000 r .Lanon.68b4015bf5139aeee15a5ba917de25c7.2
00000000 r .Lanon.68b4015bf5139aeee15a5ba917de25c7.20
00000000 r .Lanon.68b4015bf5139aeee15a5ba917de25c7.21
00000000 r .Lanon.68b4015bf5139aeee15a5ba917de25c7.22
00000000 r .Lanon.68b4015bf5139aeee15a5ba917de25c7.23
00000000 r .Lanon.68b4015bf5139aeee15a5ba917de25c7.24
00000000 r .Lanon.68b4015bf5139aeee15a5ba917de25c7.25
00000000 r .Lanon.68b4015bf5139aeee15a5ba917de25c7.26
00000000 r .Lanon.68b4015bf5139aeee15a5ba917de25c7.27
00000000 r .Lanon.68b4015bf5139aeee15a5ba917de25c7.28
00000000 r .Lanon.68b4015bf5139aeee15a5ba917de25c7.29
00000000 r .Lanon.68b4015bf5139aeee15a5ba917de25c7.3
00000000 r .Lanon.68b4015bf5139aeee15a5ba917de25c7.30
00000000 r .Lanon.68b4015bf5139aeee15a5ba917de25c7.31
00000000 r .Lanon.68b4015bf5139aeee15a5ba917de25c7.32
00000008 r .Lanon.68b4015bf5139aeee15a5ba917de25c7.33
00000000 r .Lanon.68b4015bf5139aeee15a5ba917de25c7.34
00000000 r .Lanon.68b4015bf5139aeee15a5ba917de25c7.35
00000000 r .Lanon.68b4015bf5139aeee15a5ba917de25c7.36
00000000 r .Lanon.68b4015bf5139aeee15a5ba917de25c7.37
00000000 r .Lanon.68b4015bf5139aeee15a5ba917de25c7.38
00000000 r .Lanon.68b4015bf5139aeee15a5ba917de25c7.39
00000000 r .Lanon.68b4015bf5139aeee15a5ba917de25c7.4
00000000 r .Lanon.68b4015bf5139aeee15a5ba917de25c7.40
00000000 r .Lanon.68b4015bf5139aeee15a5ba917de25c7.41
00000000 r .Lanon.68b4015bf5139aeee15a5ba917de25c7.42
00000000 r .Lanon.68b4015bf5139aeee15a5ba917de25c7.43
00000000 r .Lanon.68b4015bf5139aeee15a5ba917de25c7.44
00000000 r .Lanon.68b4015bf5139aeee15a5ba917de25c7.45
00000000 r .Lanon.68b4015bf5139aeee15a5ba917de25c7.46
00000004 r .Lanon.68b4015bf5139aeee15a5ba917de25c7.47
00000000 r .Lanon.68b4015bf5139aeee15a5ba917de25c7.48
00000000 r .Lanon.68b4015bf5139aeee15a5ba917de25c7.49
00000000 r .Lanon.68b4015bf5139aeee15a5ba917de25c7.5
00000000 r .Lanon.68b4015bf5139aeee15a5ba917de25c7.50
00000000 r .Lanon.68b4015bf5139aeee15a5ba917de25c7.51
00000000 r .Lanon.68b4015bf5139aeee15a5ba917de25c7.52
00000000 r .Lanon.68b4015bf5139aeee15a5ba917de25c7.53
00000000 r .Lanon.68b4015bf5139aeee15a5ba917de25c7.54
00000000 r .Lanon.68b4015bf5139aeee15a5ba917de25c7.55
00000000 r .Lanon.68b4015bf5139aeee15a5ba917de25c7.56
00000000 r .Lanon.68b4015bf5139aeee15a5ba917de25c7.57
00000000 r .Lanon.68b4015bf5139aeee15a5ba917de25c7.58
00000000 r .Lanon.68b4015bf5139aeee15a5ba917de25c7.59
00000000 r .Lanon.68b4015bf5139aeee15a5ba917de25c7.6
00000010 r .Lanon.68b4015bf5139aeee15a5ba917de25c7.60
00000000 r .Lanon.68b4015bf5139aeee15a5ba917de25c7.61
00000000 r .Lanon.68b4015bf5139aeee15a5ba917de25c7.62
00000000 r .Lanon.68b4015bf5139aeee15a5ba917de25c7.63
00000000 r .Lanon.68b4015bf5139aeee15a5ba917de25c7.64
00000000 r .Lanon.68b4015bf5139aeee15a5ba917de25c7.65
00000000 r .Lanon.68b4015bf5139aeee15a5ba917de25c7.66
00000000 r .Lanon.68b4015bf5139aeee15a5ba917de25c7.7
00000000 r .Lanon.68b4015bf5139aeee15a5ba917de25c7.8
00000000 r .Lanon.68b4015bf5139aeee15a5ba917de25c7.9
         U _ZN101_$LT$core..str..pattern..CharPredicateSearcher$LT$$u27$_$C$$u20$F$GT$$u20$as$u20$core..fmt..Debug$GT$3fmt17hf78b0c793d3d89f5E
00000000 t _ZN41_$LT$bool$u20$as$u20$core..fmt..Debug$GT$3fmt17hf7e1f9036ee1a5a7E
         U _ZN41_$LT$char$u20$as$u20$core..fmt..Debug$GT$3fmt17he4fb41665de22614E
         U _ZN42_$LT$$RF$T$u20$as$u20$core..fmt..Debug$GT$3fmt17h0c39f4d0bcf4a94dE
         U _ZN42_$LT$$RF$T$u20$as$u20$core..fmt..Debug$GT$3fmt17h0d0ff7b38ab303f9E
         U _ZN42_$LT$$RF$T$u20$as$u20$core..fmt..Debug$GT$3fmt17h23ba69ec3d8fcf37E
00000000 t _ZN42_$LT$$RF$T$u20$as$u20$core..fmt..Debug$GT$3fmt17h5ee359ba6f591cf4E
         U _ZN42_$LT$$RF$T$u20$as$u20$core..fmt..Debug$GT$3fmt17h80b92711378970a0E
         U _ZN42_$LT$$RF$T$u20$as$u20$core..fmt..Debug$GT$3fmt17ha5534fb9af10beddE
00000000 t _ZN42_$LT$$RF$T$u20$as$u20$core..fmt..Debug$GT$3fmt17hc715adc902332443E
00000000 T _ZN42_$LT$$RF$T$u20$as$u20$core..fmt..Debug$GT$3fmt17hc98e94ff72cf7fb2E
         U _ZN42_$LT$$RF$T$u20$as$u20$core..fmt..Debug$GT$3fmt17hcda6f419c5ab6c21E
         U _ZN42_$LT$$RF$T$u20$as$u20$core..fmt..Debug$GT$3fmt17hd676f10250b507c5E
         U _ZN42_$LT$$RF$T$u20$as$u20$core..fmt..Debug$GT$3fmt17hdb228ead75b5b43eE
         U _ZN44_$LT$$RF$T$u20$as$u20$core..fmt..Display$GT$3fmt17h1e371c781fcbf6abE
         U _ZN4core3fmt3num51_$LT$impl$u20$core..fmt..Display$u20$for$u20$u8$GT$3fmt17ha31007e1585d3bedE
00000000 t _ZN4core3fmt3num52_$LT$impl$u20$core..fmt..Debug$u20$for$u20$usize$GT$3fmt17h2e8d7162c3254847E
         U _ZN4core3fmt3num54_$LT$impl$u20$core..fmt..Display$u20$for$u20$usize$GT$3fmt17h7bc02b1ea81359c6E
         U _ZN4core3fmt5write17h1d5b0e1e227ed20cE
         U _ZN4core3fmt8builders10DebugTuple5field17hdeeb14ec9411353fE
         U _ZN4core3fmt8builders11DebugStruct5field17haa057cbf88084cceE
         U _ZN4core3fmt9Formatter12pad_integral17hd956203cec70dfa5E
         U _ZN4core3fmt9Formatter3pad17hac9c222c747c13c3E
         U _ZN4core3num19ASCII_LOWERCASE_MAP17h4eb9e6b7ef436f03E
         U _ZN4core3num19ASCII_UPPERCASE_MAP17h770f64f14233c129E
00000000 t _ZN4core3ptr18real_drop_in_place17h14aca68ff9cd6be7E
00000000 t _ZN4core3ptr18real_drop_in_place17h22f7fbe0fa887c0fE
00000000 t _ZN4core3ptr18real_drop_in_place17h58f930157a6b5f2bE
00000000 t _ZN4core3ptr18real_drop_in_place17ha78c120c7164b64fE
00000000 t _ZN4core3ptr18real_drop_in_place17he6a02002b4fa82ffE
00000000 t _ZN4core3ptr18real_drop_in_place17hf5d7332413209eaeE
00000000 T _ZN4core3str13from_utf8_mut17h68c56350f4c69315E
00000000 R _ZN4core3str15UTF8_CHAR_WIDTH17h7023363f1724a181E
00000000 T _ZN4core3str16slice_error_fail17h225490166b88293dE
00000000 t _ZN4core3str19run_utf8_validation17h5dfe9d3cf0787255E
00000000 T _ZN4core3str21_$LT$impl$u20$str$GT$10trim_right17h944848689c17a439E
00000000 T _ZN4core3str21_$LT$impl$u20$str$GT$10trim_start17he0c4229fb392255eE
00000000 T _ZN4core3str21_$LT$impl$u20$str$GT$12encode_utf1617hdce283e2533c73d2E
00000000 T _ZN4core3str21_$LT$impl$u20$str$GT$20make_ascii_lowercase17hf89c5c14ccbab51bE
00000000 T _ZN4core3str21_$LT$impl$u20$str$GT$20make_ascii_uppercase17h1db6a9b51908bf89E
00000000 T _ZN4core3str21_$LT$impl$u20$str$GT$4trim17h01a9914374744a1dE
00000000 T _ZN4core3str21_$LT$impl$u20$str$GT$8trim_end17h170132e8e9d44273E
00000000 T _ZN4core3str21_$LT$impl$u20$str$GT$9trim_left17h17512ba522488366E
00000000 T _ZN4core3str60_$LT$impl$u20$core..default..Default$u20$for$u20$$RF$str$GT$7default17h467ca40d85ddddc5E
00000000 T _ZN4core3str68_$LT$impl$u20$core..default..Default$u20$for$u20$$RF$mut$u20$str$GT$7default17h2fab30612f68947dE
00000000 T _ZN4core3str9from_utf817h99a6c71d26eca01bE
00000000 T _ZN4core3str9Utf8Error11valid_up_to17h401ca36b0d942768E
00000000 T _ZN4core3str9Utf8Error9error_len17h9555f430ae788fa9E
         U _ZN4core5slice22slice_index_order_fail17h5c97dc70a1ee6408E
         U _ZN4core9panicking18panic_bounds_check17h1fc4ec65e9eda7d0E
         U _ZN4core9panicking5panic17hb5d102504e882c92E
         U _ZN4core9panicking9panic_fmt17hb2b57d407fcd299fE
00000000 T _ZN54_$LT$I$u20$as$u20$core..iter..traits..IntoIterator$GT$9into_iter17h1119e02ab10e0f4cE
00000000 T _ZN54_$LT$I$u20$as$u20$core..iter..traits..IntoIterator$GT$9into_iter17hc5ef79d0ed684eb7E
00000000 T _ZN57_$LT$core..str..Utf8Error$u20$as$u20$core..fmt..Debug$GT$3fmt17h3cc69d0c2cf65f75E
00000000 T _ZN59_$LT$core..str..Utf8Error$u20$as$u20$core..fmt..Display$GT$3fmt17h9a875697f9b3703aE
00000000 T _ZN62_$LT$core..str..ParseBoolError$u20$as$u20$core..fmt..Debug$GT$3fmt17he3c666b71296c1ddE
00000000 T _ZN64_$LT$$RF$mut$u20$I$u20$as$u20$core..iter..iterator..Iterator$GT$4next17h6cd0a54158d81d91E
00000000 T _ZN64_$LT$core..str..ParseBoolError$u20$as$u20$core..fmt..Display$GT$3fmt17hab083113743ae739E
00000000 T _ZN67_$LT$core..str..Bytes$LT$$u27$a$GT$$u20$as$u20$core..fmt..Debug$GT$3fmt17h4562d91706c52e8eE
00000000 T _ZN67_$LT$core..str..Chars$LT$$u27$a$GT$$u20$as$u20$core..fmt..Debug$GT$3fmt17hb0121dff885ce05fE
00000000 T _ZN67_$LT$core..str..Lines$LT$$u27$a$GT$$u20$as$u20$core..fmt..Debug$GT$3fmt17hb2c404c11fe1fad4E
00000000 T _ZN70_$LT$core..str..LinesAny$LT$$u27$a$GT$$u20$as$u20$core..fmt..Debug$GT$3fmt17hc3652f4688d11ca3E
         U _ZN71_$LT$core..ops..range..Range$LT$Idx$GT$$u20$as$u20$core..fmt..Debug$GT$3fmt17h3c7e2c6674dc3acbE
00000000 T _ZN73_$LT$core..str..CharIndices$LT$$u27$a$GT$$u20$as$u20$core..fmt..Debug$GT$3fmt17ha61aada431b18003E
00000000 T _ZN73_$LT$core..str..EncodeUtf16$LT$$u27$_$GT$$u20$as$u20$core..fmt..Debug$GT$3fmt17h8a61c667350cb153E
00000000 T _ZN76_$LT$core..str..Split$LT$$u27$a$C$$u20$P$GT$$u20$as$u20$core..fmt..Debug$GT$3fmt17h60a5a1af3dfea9ecE
00000000 T _ZN77_$LT$core..str..SplitWhitespace$LT$$u27$a$GT$$u20$as$u20$core..fmt..Debug$GT$3fmt17h99d52abfdc502434E
00000000 T _ZN82_$LT$core..str..SplitAsciiWhitespace$LT$$u27$a$GT$$u20$as$u20$core..fmt..Debug$GT$3fmt17h2b0f96eaf2a09e11E
         U _ZN83_$LT$core..str..pattern..CharSearcher$LT$$u27$a$GT$$u20$as$u20$core..fmt..Debug$GT$3fmt17h6fa430acac59bf95E
00000000 t _ZN84_$LT$core..str..SplitInternal$LT$$u27$a$C$$u20$P$GT$$u20$as$u20$core..fmt..Debug$GT$3fmt17h6806927c1b129a6dE
00000000 t _ZN84_$LT$core..str..SplitInternal$LT$$u27$a$C$$u20$P$GT$$u20$as$u20$core..fmt..Debug$GT$3fmt17h769ea97b98c0a0c3E
00000000 T _ZN86_$LT$core..str..SplitTerminator$LT$$u27$a$C$$u20$P$GT$$u20$as$u20$core..fmt..Debug$GT$3fmt17h3b5eac4edc35e803E
00000000 T _ZN90_$LT$core..str..Bytes$LT$$u27$a$GT$$u20$as$u20$core..iter_private..TrustedRandomAccess$GT$13get_unchecked17hc272ba507147cd46E
00000000 T _ZN90_$LT$core..str..Bytes$LT$$u27$a$GT$$u20$as$u20$core..iter_private..TrustedRandomAccess$GT$20may_have_side_effect17h28b378ae8311a279E

core-87b341ced06d2d9e.core.9r1ss7xu-cgu.15.rcgu.o:
         U abort
00000000 R anon.31c391fee95154598eab410655e56dc4.28.llvm.8755331276361445789
00000000 R anon.31c391fee95154598eab410655e56dc4.2.llvm.8755331276361445789
00000000 R anon.31c391fee95154598eab410655e56dc4.30.llvm.8755331276361445789
00000000 R anon.31c391fee95154598eab410655e56dc4.31.llvm.8755331276361445789
00000000 R anon.31c391fee95154598eab410655e56dc4.33.llvm.8755331276361445789
00000000 R anon.31c391fee95154598eab410655e56dc4.34.llvm.8755331276361445789
00000000 R anon.31c391fee95154598eab410655e56dc4.35.llvm.8755331276361445789
00000000 R anon.31c391fee95154598eab410655e56dc4.36.llvm.8755331276361445789
00000000 R anon.31c391fee95154598eab410655e56dc4.37.llvm.8755331276361445789
00000000 R anon.31c391fee95154598eab410655e56dc4.38.llvm.8755331276361445789
00000000 R anon.31c391fee95154598eab410655e56dc4.40.llvm.8755331276361445789
00000000 R anon.31c391fee95154598eab410655e56dc4.43.llvm.8755331276361445789
00000000 R anon.31c391fee95154598eab410655e56dc4.44.llvm.8755331276361445789
00000000 R anon.31c391fee95154598eab410655e56dc4.45.llvm.8755331276361445789
00000000 R anon.31c391fee95154598eab410655e56dc4.46.llvm.8755331276361445789
00000000 R anon.31c391fee95154598eab410655e56dc4.8.llvm.8755331276361445789
         U anon.56bd365d1d643971001a5ca83dacdd28.0.llvm.11606327675864989281
         U anon.e6ba466ce09519f01a5076be0561ea9f.9.llvm.17765535580013292967
         U __ashldi3
00000000 r .Lanon.31c391fee95154598eab410655e56dc4.0
00000000 r .Lanon.31c391fee95154598eab410655e56dc4.1
00000000 r .Lanon.31c391fee95154598eab410655e56dc4.13
00000000 r .Lanon.31c391fee95154598eab410655e56dc4.14
00000000 r .Lanon.31c391fee95154598eab410655e56dc4.15
00000000 r .Lanon.31c391fee95154598eab410655e56dc4.16
00000000 r .Lanon.31c391fee95154598eab410655e56dc4.17
00000000 r .Lanon.31c391fee95154598eab410655e56dc4.18
00000000 r .Lanon.31c391fee95154598eab410655e56dc4.19
00000000 r .Lanon.31c391fee95154598eab410655e56dc4.20
00000000 r .Lanon.31c391fee95154598eab410655e56dc4.21
00000000 r .Lanon.31c391fee95154598eab410655e56dc4.22
00000000 r .Lanon.31c391fee95154598eab410655e56dc4.23
00000000 r .Lanon.31c391fee95154598eab410655e56dc4.24
00000000 r .Lanon.31c391fee95154598eab410655e56dc4.25
00000000 r .Lanon.31c391fee95154598eab410655e56dc4.26
00000000 r .Lanon.31c391fee95154598eab410655e56dc4.27
00000000 r .Lanon.31c391fee95154598eab410655e56dc4.29
00000000 r .Lanon.31c391fee95154598eab410655e56dc4.3
00000000 r .Lanon.31c391fee95154598eab410655e56dc4.32
00000000 r .Lanon.31c391fee95154598eab410655e56dc4.39
00000000 r .Lanon.31c391fee95154598eab410655e56dc4.4
00000000 r .Lanon.31c391fee95154598eab410655e56dc4.41
00000000 r .Lanon.31c391fee95154598eab410655e56dc4.42
00000000 r .Lanon.31c391fee95154598eab410655e56dc4.47
00000000 r .Lanon.31c391fee95154598eab410655e56dc4.48
00000000 r .Lanon.31c391fee95154598eab410655e56dc4.49
00000000 r .Lanon.31c391fee95154598eab410655e56dc4.5
00000000 r .Lanon.31c391fee95154598eab410655e56dc4.50
00000000 r .Lanon.31c391fee95154598eab410655e56dc4.51
00000000 r .Lanon.31c391fee95154598eab410655e56dc4.52
00000000 r .Lanon.31c391fee95154598eab410655e56dc4.53
00000000 r .Lanon.31c391fee95154598eab410655e56dc4.54
00000004 r .Lanon.31c391fee95154598eab410655e56dc4.55
00000000 r .Lanon.31c391fee95154598eab410655e56dc4.56
00000000 r .Lanon.31c391fee95154598eab410655e56dc4.57
00000000 r .Lanon.31c391fee95154598eab410655e56dc4.58
00000000 r .Lanon.31c391fee95154598eab410655e56dc4.59
00000000 r .Lanon.31c391fee95154598eab410655e56dc4.6
00000000 r .Lanon.31c391fee95154598eab410655e56dc4.60
00000008 r .Lanon.31c391fee95154598eab410655e56dc4.61
00000000 r .Lanon.31c391fee95154598eab410655e56dc4.62
00000000 r .Lanon.31c391fee95154598eab410655e56dc4.63
00000000 r .Lanon.31c391fee95154598eab410655e56dc4.64
00000000 r .Lanon.31c391fee95154598eab410655e56dc4.65
00000000 r .Lanon.31c391fee95154598eab410655e56dc4.66
00000000 r .Lanon.31c391fee95154598eab410655e56dc4.67
00000000 r .Lanon.31c391fee95154598eab410655e56dc4.68
00000000 r .Lanon.31c391fee95154598eab410655e56dc4.69
00000000 r .Lanon.31c391fee95154598eab410655e56dc4.7
00000000 r .Lanon.31c391fee95154598eab410655e56dc4.70
00000000 r .Lanon.31c391fee95154598eab410655e56dc4.71
00000000 r .Lanon.31c391fee95154598eab410655e56dc4.72
00000000 r .Lanon.31c391fee95154598eab410655e56dc4.73
00000000 r .Lanon.31c391fee95154598eab410655e56dc4.74
00000000 r .Lanon.31c391fee95154598eab410655e56dc4.75
00000000 r .Lanon.31c391fee95154598eab410655e56dc4.76
00000000 r .Lanon.31c391fee95154598eab410655e56dc4.77
00000000 r .Lanon.31c391fee95154598eab410655e56dc4.78
00000000 r .Lanon.31c391fee95154598eab410655e56dc4.79
00000008 r .Lanon.31c391fee95154598eab410655e56dc4.80
00000000 r .Lanon.31c391fee95154598eab410655e56dc4.81
00000000 r .Lanon.31c391fee95154598eab410655e56dc4.82
00000000 r .Lanon.31c391fee95154598eab410655e56dc4.83
00000000 r .Lanon.31c391fee95154598eab410655e56dc4.84
00000000 r .Lanon.31c391fee95154598eab410655e56dc4.85
00000000 r .Lanon.31c391fee95154598eab410655e56dc4.86
00000010 r .Lanon.31c391fee95154598eab410655e56dc4.87
00000000 r .Lanon.31c391fee95154598eab410655e56dc4.88
00000000 r .Lanon.31c391fee95154598eab410655e56dc4.89
00000000 r .Lanon.31c391fee95154598eab410655e56dc4.9
00000000 r .Lanon.31c391fee95154598eab410655e56dc4.90
00000000 r .Lanon.31c391fee95154598eab410655e56dc4.91
00000000 r .Lanon.31c391fee95154598eab410655e56dc4.92
00000018 r .Lanon.31c391fee95154598eab410655e56dc4.93
00000000 r .Lanon.31c391fee95154598eab410655e56dc4.94
00000000 r .Lanon.31c391fee95154598eab410655e56dc4.95
00000000 r .Lanon.31c391fee95154598eab410655e56dc4.96
00000000 r .Lanon.31c391fee95154598eab410655e56dc4.97
00000000 r .Lanon.31c391fee95154598eab410655e56dc4.98
         U memcmp
00000000 r str.1
00000000 T _ZN101_$LT$core..str..pattern..CharPredicateSearcher$LT$$u27$_$C$$u20$F$GT$$u20$as$u20$core..fmt..Debug$GT$3fmt17hf78b0c793d3d89f5E
00000000 T _ZN102_$LT$core..str..pattern..CharSliceSearcher$LT$$u27$a$C$$u20$$u27$b$GT$$u20$as$u20$core..fmt..Debug$GT$3fmt17h22d71f599e8c3759E
00000000 T _ZN126_$LT$$LP$dyn$u20$core..any..Any$u20$$u2b$$u20$core..marker..Send$u20$$u2b$$u20$$u27$static$RP$$u20$as$u20$core..fmt..Debug$GT$3fmt17he5b23453a813782dE
00000000 T _ZN159_$LT$$LP$dyn$u20$core..any..Any$u20$$u2b$$u20$core..marker..Send$u20$$u2b$$u20$core..marker..Sync$u20$$u2b$$u20$$u27$static$RP$$u20$as$u20$core..fmt..Debug$GT$3fmt17hd4aeae27b91d8426E
         U _ZN42_$LT$$RF$T$u20$as$u20$core..fmt..Debug$GT$3fmt17h08b86e23964828d9E
         U _ZN42_$LT$$RF$T$u20$as$u20$core..fmt..Debug$GT$3fmt17h0d0ff7b38ab303f9E
00000000 T _ZN42_$LT$$RF$T$u20$as$u20$core..fmt..Debug$GT$3fmt17h1e483b82c7d34661E
         U _ZN42_$LT$$RF$T$u20$as$u20$core..fmt..Debug$GT$3fmt17h2279e80f2348e1afE
00000000 t _ZN42_$LT$$RF$T$u20$as$u20$core..fmt..Debug$GT$3fmt17h299d6d908079ae71E
00000000 T _ZN42_$LT$$RF$T$u20$as$u20$core..fmt..Debug$GT$3fmt17h2a8d702b62695f22E
00000000 t _ZN42_$LT$$RF$T$u20$as$u20$core..fmt..Debug$GT$3fmt17h3ec8113e4ecf9524E
00000000 t _ZN42_$LT$$RF$T$u20$as$u20$core..fmt..Debug$GT$3fmt17h45c7ead86703cf94E
         U _ZN42_$LT$$RF$T$u20$as$u20$core..fmt..Debug$GT$3fmt17h7650f461a961fc63E
         U _ZN42_$LT$$RF$T$u20$as$u20$core..fmt..Debug$GT$3fmt17h7d12d9fa6e3b4690E
00000000 t _ZN42_$LT$$RF$T$u20$as$u20$core..fmt..Debug$GT$3fmt17h849ae8b2f38a6e87E
         U _ZN42_$LT$$RF$T$u20$as$u20$core..fmt..Debug$GT$3fmt17haefa60bf8c5954f0E
00000000 T _ZN42_$LT$$RF$T$u20$as$u20$core..fmt..Debug$GT$3fmt17haf773b1f70aacb08E
         U _ZN42_$LT$$RF$T$u20$as$u20$core..fmt..Debug$GT$3fmt17hc98e94ff72cf7fb2E
         U _ZN42_$LT$$RF$T$u20$as$u20$core..fmt..Debug$GT$3fmt17hcd5ce40fe14a66edE
00000000 t _ZN42_$LT$$RF$T$u20$as$u20$core..fmt..Debug$GT$3fmt17he7aa1c02d0cc8891E
         U _ZN42_$LT$$RF$T$u20$as$u20$core..fmt..Debug$GT$3fmt17hea0d775ed95d904bE
         U _ZN42_$LT$$RF$T$u20$as$u20$core..fmt..Debug$GT$3fmt17hefbbd91fbf1e84ceE
00000000 T _ZN42_$LT$$RF$T$u20$as$u20$core..fmt..Debug$GT$3fmt17hf1f6c352f5c63109E
         U _ZN44_$LT$$RF$T$u20$as$u20$core..fmt..Display$GT$3fmt17h1e371c781fcbf6abE
00000000 t _ZN44_$LT$$RF$T$u20$as$u20$core..fmt..Pointer$GT$3fmt17hcb74a3a82ba91ba6E
00000000 T _ZN4core3any6TypeId2of17h527aad040f0ff10cE
00000000 T _ZN4core3any6TypeId2of17ha64c91ddc9e02628E
00000000 T _ZN4core3cmp5impls50_$LT$impl$u20$core..cmp..Ord$u20$for$u20$$u21$$GT$3cmp17he50c5bad6040a3e0E
00000000 T _ZN4core3cmp5impls56_$LT$impl$u20$core..cmp..PartialEq$u20$for$u20$$u21$$GT$2eq17h139e090b94fe36a0E
00000000 T _ZN4core3cmp5impls57_$LT$impl$u20$core..cmp..PartialOrd$u20$for$u20$$u21$$GT$11partial_cmp17h2c0657078e5cdd34E
00000000 T _ZN4core3f3221_$LT$impl$u20$f32$GT$8classify17h074b03c2d547da1bE
00000000 T _ZN4core3f6421_$LT$impl$u20$f64$GT$8classify17h6605f46c976f3a0aE
00000000 T _ZN4core3ffi70_$LT$impl$u20$core..fmt..Debug$u20$for$u20$core..ffi....VaListImpl$GT$3fmt17hd790e0c2acfe3adaE
00000000 T _ZN4core3fmt5Write10write_char17ha0cc9742757e1e13E
         U _ZN4core3fmt5write17h1d5b0e1e227ed20cE
00000000 T _ZN4core3fmt5Write9write_fmt17h7432d42741af81adE
00000000 T _ZN4core3fmt8builders10DebugInner5entry17h427cf8739122aa6bE.llvm.8755331276361445789
00000000 T _ZN4core3fmt8builders10DebugTuple5field17hdeeb14ec9411353fE
00000000 T _ZN4core3fmt8builders10DebugTuple6finish17heecdb8f050323c8fE
00000000 T _ZN4core3fmt8builders11DebugStruct5field17haa057cbf88084cceE
00000000 T _ZN4core3fmt8builders11DebugStruct6finish17h1ce518d83971af31E
00000000 T _ZN4core3fmt8builders13debug_map_new17hfab63f5f5553752fE
00000000 T _ZN4core3fmt8builders13debug_set_new17h44fd220ffa046833E
00000000 T _ZN4core3fmt8builders14debug_list_new17h45091f1a36db32aaE
00000000 T _ZN4core3fmt8builders15debug_tuple_new17h3431751ec32c2b74E
00000000 T _ZN4core3fmt8builders16debug_struct_new17h465cc5eb6b95c516E
00000000 T _ZN4core3fmt8builders8DebugMap5entry17hdc7242b15424ccbcE
00000000 T _ZN4core3fmt8builders8DebugMap6finish17hb119232633913223E
00000000 T _ZN4core3fmt8builders8DebugSet5entry17hddc5183d51211d7eE
00000000 T _ZN4core3fmt8builders8DebugSet6finish17h4738c32f03fdfb63E
00000000 T _ZN4core3fmt8builders9DebugList5entry17h902cdfffe3187156E
00000000 T _ZN4core3fmt8builders9DebugList6finish17h213642efa39db859E
00000000 T _ZN4core3fmt8builders9DebugList7entries17h1d49207ee9601710E
00000000 T _ZN4core3fmt8builders9DebugList7entries17h2db3ef477bb5d6b5E
         U _ZN4core3fmt9Formatter12pad_integral17hd956203cec70dfa5E
         U _ZN4core3fmt9Formatter3pad17hac9c222c747c13c3E
00000000 T _ZN4core3ptr12align_offset17he0276e14ede4e194E
00000000 t _ZN4core3ptr18real_drop_in_place17h1108a5cff3391ecaE
00000000 t _ZN4core3ptr18real_drop_in_place17h6cc6b95a2a57be1dE
00000000 t _ZN4core3ptr18real_drop_in_place17h8be47f8059248930E
00000000 T _ZN4core3ptr33_$LT$impl$u20$$BP$const$u20$T$GT$12align_offset17hce9f71ebb4029c37E
         U _ZN4core3str16slice_error_fail17h225490166b88293dE
00000000 t _ZN4core3str6traits103_$LT$impl$u20$core..slice..SliceIndex$LT$str$GT$$u20$for$u20$core..ops..range..RangeTo$LT$usize$GT$$GT$5index28_$u7b$$u7b$closure$u7d$$u7d$17hc9f7bad8f7341831E
00000000 t _ZN4core3str6traits105_$LT$impl$u20$core..slice..SliceIndex$LT$str$GT$$u20$for$u20$core..ops..range..RangeFrom$LT$usize$GT$$GT$5index28_$u7b$$u7b$closure$u7d$$u7d$17he0178946b78cc7b9E
00000000 T _ZN4core3str6traits23str_index_overflow_fail17h49af17dfcb27fde3E
00000000 T _ZN4core3str7pattern11StrSearcher3new17h77025f6b0c09fe7eE
         U _ZN4core5slice20slice_index_len_fail17h1de6582f5b25970aE
         U _ZN4core5slice22slice_index_order_fail17h5c97dc70a1ee6408E
         U _ZN4core5slice6memchr6memchr17ha3f2a206bb842f35E
         U _ZN4core9panicking18panic_bounds_check17h1fc4ec65e9eda7d0E
         U _ZN4core9panicking5panic17hb5d102504e882c92E
00000000 t _ZN50_$LT$$RF$mut$u20$W$u20$as$u20$core..fmt..Write$GT$10write_char17h3a5910c9839d65f1E
00000000 t _ZN50_$LT$$RF$mut$u20$W$u20$as$u20$core..fmt..Write$GT$9write_fmt17h8805d0c6f7408593E
00000000 t _ZN50_$LT$$RF$mut$u20$W$u20$as$u20$core..fmt..Write$GT$9write_str17h724f70ffd50f839cE
00000000 T _ZN50_$LT$T$u20$as$u20$core..convert..From$LT$T$GT$$GT$4from17h250620fba1799c6fE
00000000 T _ZN50_$LT$T$u20$as$u20$core..convert..From$LT$T$GT$$GT$4from17hb4d5bd74be2f04fcE
00000000 T _ZN50_$LT$T$u20$as$u20$core..convert..From$LT$T$GT$$GT$4from17he89e268fb9b3edb5E
00000000 T _ZN53_$LT$T$u20$as$u20$core..convert..TryFrom$LT$U$GT$$GT$8try_from17h8a69c19dc372ed3cE
00000000 T _ZN54_$LT$core..any..TypeId$u20$as$u20$core..fmt..Debug$GT$3fmt17hfc112642b02a03a0E
00000000 T _ZN54_$LT$core..ffi..c_void$u20$as$u20$core..fmt..Debug$GT$3fmt17h32d9ad6a03f891f5E
00000000 T _ZN56_$LT$core..cmp..Ordering$u20$as$u20$core..fmt..Debug$GT$3fmt17h99c88776d9d3dd92E
00000000 T _ZN60_$LT$core..cell..BorrowError$u20$as$u20$core..fmt..Debug$GT$3fmt17h1515546542e540f1E
00000000 T _ZN60_$LT$core..task..wake..Waker$u20$as$u20$core..fmt..Debug$GT$3fmt17h30ca0553b2ac1526E
00000000 T _ZN62_$LT$core..cell..BorrowError$u20$as$u20$core..fmt..Display$GT$3fmt17h4d631fa817821ebdE
00000000 T _ZN63_$LT$core..cell..BorrowMutError$u20$as$u20$core..fmt..Debug$GT$3fmt17h8a697fa923a57326E
00000000 T _ZN64_$LT$core..marker..PhantomPinned$u20$as$u20$core..fmt..Debug$GT$3fmt17h528a6e207e1cfa22E
00000000 T _ZN65_$LT$core..cell..BorrowMutError$u20$as$u20$core..fmt..Display$GT$3fmt17h82bec332d590ebdaE
00000000 T _ZN65_$LT$core..task..wake..LocalWaker$u20$as$u20$core..fmt..Debug$GT$3fmt17haf1c960c4f83e3faE
00000000 T _ZN67_$LT$core..str..pattern..SearchStep$u20$as$u20$core..fmt..Debug$GT$3fmt17h8d97d374623c1f91E
00000000 T _ZN68_$LT$core..ffi..VaList$LT$$u27$a$GT$$u20$as$u20$core..fmt..Debug$GT$3fmt17ha3145b60e4e0111cE
00000000 T _ZN68_$LT$core..str..pattern..EmptyNeedle$u20$as$u20$core..fmt..Debug$GT$3fmt17he3a11384779dd6e3E
00000000 T _ZN71_$LT$core..str..pattern..TwoWaySearcher$u20$as$u20$core..fmt..Debug$GT$3fmt17hebeed8ddcd01ab65E
00000000 T _ZN72_$LT$core..str..pattern..StrSearcherImpl$u20$as$u20$core..fmt..Debug$GT$3fmt17hd983f67bee951f64E
         U _ZN73_$LT$core..str..CharIndices$LT$$u27$a$GT$$u20$as$u20$core..fmt..Debug$GT$3fmt17ha61aada431b18003E
00000000 T _ZN82_$LT$core..fmt..builders..PadAdapter$LT$$u27$_$GT$$u20$as$u20$core..fmt..Write$GT$9write_str17hd9531ee813236af3E
00000000 T _ZN83_$LT$core..str..pattern..CharSearcher$LT$$u27$a$GT$$u20$as$u20$core..fmt..Debug$GT$3fmt17h6fa430acac59bf95E
00000000 T _ZN93_$LT$$LP$dyn$u20$core..any..Any$u20$$u2b$$u20$$u27$static$RP$$u20$as$u20$core..fmt..Debug$GT$3fmt17h0794e22a6fa493acE
00000000 T _ZN96_$LT$core..str..pattern..StrSearcher$LT$$u27$a$C$$u20$$u27$b$GT$$u20$as$u20$core..fmt..Debug$GT$3fmt17h880b90cd0f5b305aE

core-87b341ced06d2d9e.core.9r1ss7xu-cgu.2.rcgu.o:
         U abort
         U anon.31c391fee95154598eab410655e56dc4.28.llvm.8755331276361445789
         U anon.31c391fee95154598eab410655e56dc4.30.llvm.8755331276361445789
         U anon.31c391fee95154598eab410655e56dc4.33.llvm.8755331276361445789
         U anon.31c391fee95154598eab410655e56dc4.34.llvm.8755331276361445789
         U anon.31c391fee95154598eab410655e56dc4.36.llvm.8755331276361445789
         U anon.56bd365d1d643971001a5ca83dacdd28.0.llvm.11606327675864989281
         U anon.56bd365d1d643971001a5ca83dacdd28.14.llvm.11606327675864989281
         U anon.56bd365d1d643971001a5ca83dacdd28.15.llvm.11606327675864989281
00000000 r .Lanon.f5135c6f5da3cf05611f6468500cd8b1.0
00000000 r .Lanon.f5135c6f5da3cf05611f6468500cd8b1.1
00000000 r .Lanon.f5135c6f5da3cf05611f6468500cd8b1.10
00000000 r .Lanon.f5135c6f5da3cf05611f6468500cd8b1.11
00000000 r .Lanon.f5135c6f5da3cf05611f6468500cd8b1.12
00000000 r .Lanon.f5135c6f5da3cf05611f6468500cd8b1.13
00000000 r .Lanon.f5135c6f5da3cf05611f6468500cd8b1.14
00000000 r .Lanon.f5135c6f5da3cf05611f6468500cd8b1.15
00000000 r .Lanon.f5135c6f5da3cf05611f6468500cd8b1.16
00000004 r .Lanon.f5135c6f5da3cf05611f6468500cd8b1.17
00000000 r .Lanon.f5135c6f5da3cf05611f6468500cd8b1.18
00000000 r .Lanon.f5135c6f5da3cf05611f6468500cd8b1.19
00000000 r .Lanon.f5135c6f5da3cf05611f6468500cd8b1.2
00000008 r .Lanon.f5135c6f5da3cf05611f6468500cd8b1.20
00000000 r .Lanon.f5135c6f5da3cf05611f6468500cd8b1.21
00000000 r .Lanon.f5135c6f5da3cf05611f6468500cd8b1.22
00000000 r .Lanon.f5135c6f5da3cf05611f6468500cd8b1.3
00000000 r .Lanon.f5135c6f5da3cf05611f6468500cd8b1.4
00000000 r .Lanon.f5135c6f5da3cf05611f6468500cd8b1.5
00000000 r .Lanon.f5135c6f5da3cf05611f6468500cd8b1.6
00000000 r .Lanon.f5135c6f5da3cf05611f6468500cd8b1.7
00000000 r .Lanon.f5135c6f5da3cf05611f6468500cd8b1.8
00000000 r .Lanon.f5135c6f5da3cf05611f6468500cd8b1.9
         U __lshrdi3
         U __lshrti3
         U __mulodi4
         U __muloti4
         U __multi3
00000000 t _ZN42_$LT$$RF$T$u20$as$u20$core..fmt..Debug$GT$3fmt17h647e3a303578ac5dE
00000000 T _ZN42_$LT$$RF$T$u20$as$u20$core..fmt..Debug$GT$3fmt17h7d1282a08b8734e0E
         U _ZN42_$LT$$RF$T$u20$as$u20$core..fmt..Debug$GT$3fmt17hcda6f419c5ab6c21E
         U _ZN4core3fmt3num52_$LT$impl$u20$core..fmt..Display$u20$for$u20$u32$GT$3fmt17h5e2a8a15e581fae7E
         U _ZN4core3fmt8builders10DebugTuple5field17hdeeb14ec9411353fE
         U _ZN4core3fmt8builders11DebugStruct5field17haa057cbf88084cceE
         U _ZN4core3fmt9Formatter12pad_integral17hd956203cec70dfa5E
         U _ZN4core3fmt9Formatter3pad17hac9c222c747c13c3E
00000000 T _ZN4core3num13ParseIntError13__description17hbe7325a4392ac0d2E
00000000 T _ZN4core3num13ParseIntError4kind17h57042907f426f70eE
00000000 t _ZN4core3num14from_str_radix17h539a5d649094cddbE
00000000 t _ZN4core3num14from_str_radix17h63f5935c0fb4039eE
00000000 t _ZN4core3num14from_str_radix17h674a0be9a9a7835aE
00000000 t _ZN4core3num14from_str_radix17h9e81a6f05096a3f8E
00000000 t _ZN4core3num14from_str_radix17hd9609bebdf75672eE
00000000 T _ZN4core3num15TryFromIntError13__description17h026c16f1f76c7164E
00000000 R _ZN4core3num19ASCII_LOWERCASE_MAP17h4eb9e6b7ef436f03E
00000000 R _ZN4core3num19ASCII_UPPERCASE_MAP17h770f64f14233c129E
00000000 T _ZN4core3num20_$LT$impl$u20$i8$GT$14from_str_radix17h9084780e067bffe3E
00000000 T _ZN4core3num20_$LT$impl$u20$u8$GT$14from_str_radix17h01fb0ab725570dfeE
00000000 T _ZN4core3num20_$LT$impl$u20$u8$GT$26wrapping_next_power_of_two17h5368a81a72bef967E
00000000 T _ZN4core3num21_$LT$impl$u20$i16$GT$14from_str_radix17hb63fc7b840f09d10E
00000000 T _ZN4core3num21_$LT$impl$u20$i32$GT$14from_str_radix17h8bc8c9e84f0b7ffcE
00000000 T _ZN4core3num21_$LT$impl$u20$i64$GT$14from_str_radix17h8af382c2a3c287f4E
00000000 T _ZN4core3num21_$LT$impl$u20$u16$GT$14from_str_radix17h5118e72355755c45E
00000000 T _ZN4core3num21_$LT$impl$u20$u16$GT$26wrapping_next_power_of_two17h4b9fecab4219bf3bE
00000000 T _ZN4core3num21_$LT$impl$u20$u32$GT$14from_str_radix17hebb85c97f6264615E
00000000 T _ZN4core3num21_$LT$impl$u20$u32$GT$26wrapping_next_power_of_two17h12aa1172a0017dc6E
00000000 T _ZN4core3num21_$LT$impl$u20$u64$GT$14from_str_radix17h1fefec5235f2fd97E
00000000 T _ZN4core3num21_$LT$impl$u20$u64$GT$26wrapping_next_power_of_two17hff333c2998f0b32aE
00000000 R _ZN4core3num21ASCII_CHARACTER_CLASS17h383267aa5cf74854E
00000000 T _ZN4core3num22_$LT$impl$u20$i128$GT$14from_str_radix17hc665c2bc65a27aaaE
00000000 T _ZN4core3num22_$LT$impl$u20$u128$GT$14from_str_radix17h73c2b5399b05d621E
00000000 T _ZN4core3num22_$LT$impl$u20$u128$GT$26wrapping_next_power_of_two17hb9e6505a00c4abb1E
00000000 T _ZN4core3num23_$LT$impl$u20$isize$GT$14from_str_radix17h15859f5fa977b7cfE
00000000 T _ZN4core3num23_$LT$impl$u20$usize$GT$14from_str_radix17h0702e13e71ddc043E
00000000 T _ZN4core3num23_$LT$impl$u20$usize$GT$26wrapping_next_power_of_two17had2c26dc58cbaba8E
00000000 T _ZN4core3num51_$LT$impl$u20$core..str..FromStr$u20$for$u20$i8$GT$8from_str17h94026de264224d41E
00000000 T _ZN4core3num51_$LT$impl$u20$core..str..FromStr$u20$for$u20$u8$GT$8from_str17h54d664b1a96fc751E
00000000 T _ZN4core3num52_$LT$impl$u20$core..str..FromStr$u20$for$u20$i16$GT$8from_str17h7afbc7b830ab1e02E
00000000 T _ZN4core3num52_$LT$impl$u20$core..str..FromStr$u20$for$u20$i32$GT$8from_str17h96de7fa7f3313c16E
00000000 T _ZN4core3num52_$LT$impl$u20$core..str..FromStr$u20$for$u20$i64$GT$8from_str17hd2feca728954ba0aE
00000000 T _ZN4core3num52_$LT$impl$u20$core..str..FromStr$u20$for$u20$u16$GT$8from_str17h206e063eef911089E
00000000 T _ZN4core3num52_$LT$impl$u20$core..str..FromStr$u20$for$u20$u32$GT$8from_str17h0b1c3bc5e27a7025E
00000000 T _ZN4core3num52_$LT$impl$u20$core..str..FromStr$u20$for$u20$u64$GT$8from_str17h069c8a6452faa0faE
00000000 T _ZN4core3num53_$LT$impl$u20$core..str..FromStr$u20$for$u20$i128$GT$8from_str17hf711e2163ff2d61eE
00000000 T _ZN4core3num53_$LT$impl$u20$core..str..FromStr$u20$for$u20$u128$GT$8from_str17h2ff2f1b98677ed1bE
00000000 T _ZN4core3num54_$LT$impl$u20$core..str..FromStr$u20$for$u20$isize$GT$8from_str17hffc62a0798c14ab3E
00000000 T _ZN4core3num54_$LT$impl$u20$core..str..FromStr$u20$for$u20$usize$GT$8from_str17he93504e498cca228E
00000000 T _ZN4core3num80_$LT$impl$u20$core..convert..From$LT$core..num..NonZeroI8$GT$$u20$for$u20$i8$GT$4from17h00c501e1df6d2356E
00000000 T _ZN4core3num80_$LT$impl$u20$core..convert..From$LT$core..num..NonZeroU8$GT$$u20$for$u20$u8$GT$4from17h7004685ef5e54fe8E
00000000 T _ZN4core3num82_$LT$impl$u20$core..convert..From$LT$core..num..NonZeroI16$GT$$u20$for$u20$i16$GT$4from17h0a0a80d0f5402f81E
00000000 T _ZN4core3num82_$LT$impl$u20$core..convert..From$LT$core..num..NonZeroI32$GT$$u20$for$u20$i32$GT$4from17h7428c14d2c331d31E
00000000 T _ZN4core3num82_$LT$impl$u20$core..convert..From$LT$core..num..NonZeroI64$GT$$u20$for$u20$i64$GT$4from17h59aaf79f48302ce6E
00000000 T _ZN4core3num82_$LT$impl$u20$core..convert..From$LT$core..num..NonZeroU16$GT$$u20$for$u20$u16$GT$4from17h8d4b9f97a2849efbE
00000000 T _ZN4core3num82_$LT$impl$u20$core..convert..From$LT$core..num..NonZeroU32$GT$$u20$for$u20$u32$GT$4from17haec3a3bca8c4e801E
00000000 T _ZN4core3num82_$LT$impl$u20$core..convert..From$LT$core..num..NonZeroU64$GT$$u20$for$u20$u64$GT$4from17h57afc185b7044e44E
00000000 T _ZN4core3num84_$LT$impl$u20$core..convert..From$LT$core..num..NonZeroI128$GT$$u20$for$u20$i128$GT$4from17h9b78ff57b6651fa0E
00000000 T _ZN4core3num84_$LT$impl$u20$core..convert..From$LT$core..num..NonZeroU128$GT$$u20$for$u20$u128$GT$4from17h29e4ebb8a48d6b9fE
00000000 T _ZN4core3num86_$LT$impl$u20$core..convert..From$LT$core..num..NonZeroIsize$GT$$u20$for$u20$isize$GT$4from17hfe54abc61d1ed326E
00000000 T _ZN4core3num86_$LT$impl$u20$core..convert..From$LT$core..num..NonZeroUsize$GT$$u20$for$u20$usize$GT$4from17h8bd451cbaf332eecE
00000000 t _ZN4core3ptr18real_drop_in_place17h4fd75eeea104aa77E
         U _ZN4core5slice22slice_index_order_fail17h5c97dc70a1ee6408E
         U _ZN4core9panicking9panic_fmt17hb2b57d407fcd299fE
00000000 T _ZN58_$LT$core..num..FpCategory$u20$as$u20$core..fmt..Debug$GT$3fmt17h22a41caaca2341f2E
00000000 T _ZN60_$LT$core..num..IntErrorKind$u20$as$u20$core..fmt..Debug$GT$3fmt17hbfd1b8ca83472f69E
00000000 T _ZN61_$LT$core..num..ParseIntError$u20$as$u20$core..fmt..Debug$GT$3fmt17h14c8d9ded5158f02E
00000000 T _ZN63_$LT$core..num..ParseIntError$u20$as$u20$core..fmt..Display$GT$3fmt17hdafe09805cb937e1E
00000000 T _ZN63_$LT$core..num..TryFromIntError$u20$as$u20$core..fmt..Debug$GT$3fmt17h15ab6ebeece6fde8E
00000000 T _ZN65_$LT$core..num..TryFromIntError$u20$as$u20$core..fmt..Display$GT$3fmt17h32cd761a2b54a6eaE
00000000 T _ZN79_$LT$core..num..TryFromIntError$u20$as$u20$core..convert..From$LT$$u21$$GT$$GT$4from17hd188e6697aa11ddbE

core-87b341ced06d2d9e.core.9r1ss7xu-cgu.3.rcgu.o:
         U abort
         U anon.31c391fee95154598eab410655e56dc4.28.llvm.8755331276361445789
         U anon.31c391fee95154598eab410655e56dc4.30.llvm.8755331276361445789
         U anon.31c391fee95154598eab410655e56dc4.36.llvm.8755331276361445789
00000000 r .Lanon.77f11a1adf2ea60a8efb7cbd5a1b38a1.0
00000000 r .Lanon.77f11a1adf2ea60a8efb7cbd5a1b38a1.1
00000000 r .Lanon.77f11a1adf2ea60a8efb7cbd5a1b38a1.10
00000000 r .Lanon.77f11a1adf2ea60a8efb7cbd5a1b38a1.11
00000000 r .Lanon.77f11a1adf2ea60a8efb7cbd5a1b38a1.12
00000000 r .Lanon.77f11a1adf2ea60a8efb7cbd5a1b38a1.13
00000000 r .Lanon.77f11a1adf2ea60a8efb7cbd5a1b38a1.14
00000000 r .Lanon.77f11a1adf2ea60a8efb7cbd5a1b38a1.15
00000000 r .Lanon.77f11a1adf2ea60a8efb7cbd5a1b38a1.16
00000000 r .Lanon.77f11a1adf2ea60a8efb7cbd5a1b38a1.17
00000000 r .Lanon.77f11a1adf2ea60a8efb7cbd5a1b38a1.18
00000000 r .Lanon.77f11a1adf2ea60a8efb7cbd5a1b38a1.19
00000000 r .Lanon.77f11a1adf2ea60a8efb7cbd5a1b38a1.2
00000000 r .Lanon.77f11a1adf2ea60a8efb7cbd5a1b38a1.20
00000000 r .Lanon.77f11a1adf2ea60a8efb7cbd5a1b38a1.21
00000000 r .Lanon.77f11a1adf2ea60a8efb7cbd5a1b38a1.22
00000000 r .Lanon.77f11a1adf2ea60a8efb7cbd5a1b38a1.23
00000000 r .Lanon.77f11a1adf2ea60a8efb7cbd5a1b38a1.24
00000000 r .Lanon.77f11a1adf2ea60a8efb7cbd5a1b38a1.25
00000000 r .Lanon.77f11a1adf2ea60a8efb7cbd5a1b38a1.26
00000000 r .Lanon.77f11a1adf2ea60a8efb7cbd5a1b38a1.27
00000000 r .Lanon.77f11a1adf2ea60a8efb7cbd5a1b38a1.28
00000000 r .Lanon.77f11a1adf2ea60a8efb7cbd5a1b38a1.29
00000000 r .Lanon.77f11a1adf2ea60a8efb7cbd5a1b38a1.3
00000000 r .Lanon.77f11a1adf2ea60a8efb7cbd5a1b38a1.30
00000000 r .Lanon.77f11a1adf2ea60a8efb7cbd5a1b38a1.31
00000000 r .Lanon.77f11a1adf2ea60a8efb7cbd5a1b38a1.32
00000000 r .Lanon.77f11a1adf2ea60a8efb7cbd5a1b38a1.33
00000000 r .Lanon.77f11a1adf2ea60a8efb7cbd5a1b38a1.34
00000000 r .Lanon.77f11a1adf2ea60a8efb7cbd5a1b38a1.35
00000000 r .Lanon.77f11a1adf2ea60a8efb7cbd5a1b38a1.36
00000000 r .Lanon.77f11a1adf2ea60a8efb7cbd5a1b38a1.37
00000000 r .Lanon.77f11a1adf2ea60a8efb7cbd5a1b38a1.38
00000000 r .Lanon.77f11a1adf2ea60a8efb7cbd5a1b38a1.39
00000000 r .Lanon.77f11a1adf2ea60a8efb7cbd5a1b38a1.4
00000000 r .Lanon.77f11a1adf2ea60a8efb7cbd5a1b38a1.40
00000000 r .Lanon.77f11a1adf2ea60a8efb7cbd5a1b38a1.41
00000000 r .Lanon.77f11a1adf2ea60a8efb7cbd5a1b38a1.42
00000000 r .Lanon.77f11a1adf2ea60a8efb7cbd5a1b38a1.43
00000000 r .Lanon.77f11a1adf2ea60a8efb7cbd5a1b38a1.44
00000000 r .Lanon.77f11a1adf2ea60a8efb7cbd5a1b38a1.45
00000000 r .Lanon.77f11a1adf2ea60a8efb7cbd5a1b38a1.46
00000000 r .Lanon.77f11a1adf2ea60a8efb7cbd5a1b38a1.47
00000000 r .Lanon.77f11a1adf2ea60a8efb7cbd5a1b38a1.48
00000000 r .Lanon.77f11a1adf2ea60a8efb7cbd5a1b38a1.49
00000000 r .Lanon.77f11a1adf2ea60a8efb7cbd5a1b38a1.5
00000000 r .Lanon.77f11a1adf2ea60a8efb7cbd5a1b38a1.50
00000000 r .Lanon.77f11a1adf2ea60a8efb7cbd5a1b38a1.51
00000000 r .Lanon.77f11a1adf2ea60a8efb7cbd5a1b38a1.52
00000000 r .Lanon.77f11a1adf2ea60a8efb7cbd5a1b38a1.53
00000004 r .Lanon.77f11a1adf2ea60a8efb7cbd5a1b38a1.54
00000000 r .Lanon.77f11a1adf2ea60a8efb7cbd5a1b38a1.55
00000000 r .Lanon.77f11a1adf2ea60a8efb7cbd5a1b38a1.56
00000000 r .Lanon.77f11a1adf2ea60a8efb7cbd5a1b38a1.57
00000000 r .Lanon.77f11a1adf2ea60a8efb7cbd5a1b38a1.58
00000000 r .Lanon.77f11a1adf2ea60a8efb7cbd5a1b38a1.59
00000000 r .Lanon.77f11a1adf2ea60a8efb7cbd5a1b38a1.6
00000000 r .Lanon.77f11a1adf2ea60a8efb7cbd5a1b38a1.7
00000000 r .Lanon.77f11a1adf2ea60a8efb7cbd5a1b38a1.8
00000000 r .Lanon.77f11a1adf2ea60a8efb7cbd5a1b38a1.9
         U memcpy
         U memset
00000000 r str.0
         U _ZN42_$LT$$RF$T$u20$as$u20$core..fmt..Debug$GT$3fmt17h071c8b97708e64c4E
         U _ZN42_$LT$$RF$T$u20$as$u20$core..fmt..Debug$GT$3fmt17h0d0ff7b38ab303f9E
         U _ZN42_$LT$$RF$T$u20$as$u20$core..fmt..Debug$GT$3fmt17hacf5a3755c9565c1E
         U _ZN4core3fmt8builders10DebugTuple5field17hdeeb14ec9411353fE
00000000 T _ZN4core3num7flt2dec14determine_sign17h50e5bced0832024eE
00000000 T _ZN4core3num7flt2dec15to_shortest_str17hedccd1705c743be5E
00000000 T _ZN4core3num7flt2dec15to_shortest_str17hfdd52535253e2dfcE
00000000 T _ZN4core3num7flt2dec16to_exact_exp_str17h5fc0af256c7398afE
00000000 T _ZN4core3num7flt2dec16to_exact_exp_str17hd20d5eaef9d2e981E
00000000 T _ZN4core3num7flt2dec17digits_to_dec_str17h67f86c72e38877daE
00000000 T _ZN4core3num7flt2dec17digits_to_exp_str17h4c16ac0aa8492e21E
00000000 T _ZN4core3num7flt2dec18to_exact_fixed_str17h9df72e021d55e411E
00000000 T _ZN4core3num7flt2dec18to_exact_fixed_str17hb3b4ced72dcc5ba5E
00000000 T _ZN4core3num7flt2dec19to_shortest_exp_str17h914153d59e81cf63E
00000000 T _ZN4core3num7flt2dec19to_shortest_exp_str17hf2ddfaf723372733E
00000000 T _ZN4core3num7flt2dec20estimate_max_buf_len17h98df48e1a39311a0E
00000000 T _ZN4core3num7flt2dec4Part3len17h85fe2b2f097b615aE
00000000 T _ZN4core3num7flt2dec4Part5write17hea701668b0c3c3ebE
00000000 T _ZN4core3num7flt2dec8round_up17hf48a54762e2e56a4E
         U _ZN4core3num7flt2dec8strategy5grisu16format_exact_opt17hbfff2227195816d2E
         U _ZN4core3num7flt2dec8strategy5grisu19format_shortest_opt17hf67f602f2ead720bE
         U _ZN4core3num7flt2dec8strategy6dragon12format_exact17hb990c55d1c39d75eE
         U _ZN4core3num7flt2dec8strategy6dragon15format_shortest17h6e930fbe117b2aa6E
00000000 T _ZN4core3num7flt2dec9Formatted3len17hded3ddb49f7f906bE
00000000 T _ZN4core3num7flt2dec9Formatted5write17he60b0d0a25629150E
00000000 t _ZN4core3ptr18real_drop_in_place17h0b3572d52b14d96bE
         U _ZN4core5slice20slice_index_len_fail17h1de6582f5b25970aE
         U _ZN4core5slice22slice_index_order_fail17h5c97dc70a1ee6408E
00000000 T _ZN4core5slice89_$LT$impl$u20$core..iter..traits..IntoIterator$u20$for$u20$$RF$$u27$a$u20$$u5b$T$u5d$$GT$9into_iter17h0725e0759001982aE
         U _ZN4core9panicking18panic_bounds_check17h1fc4ec65e9eda7d0E
         U _ZN4core9panicking5panic17hb5d102504e882c92E
00000000 T _ZN61_$LT$core..num..flt2dec..Sign$u20$as$u20$core..fmt..Debug$GT$3fmt17hd12ae8498709a44dE
00000000 T _ZN75_$LT$core..num..flt2dec..Part$LT$$u27$a$GT$$u20$as$u20$core..fmt..Debug$GT$3fmt17h5163a3fbff6ea2b1E

core-87b341ced06d2d9e.core.9r1ss7xu-cgu.4.rcgu.o:
         U abort
         U anon.31c391fee95154598eab410655e56dc4.30.llvm.8755331276361445789
         U anon.31c391fee95154598eab410655e56dc4.40.llvm.8755331276361445789
         U anon.31c391fee95154598eab410655e56dc4.43.llvm.8755331276361445789
         U anon.31c391fee95154598eab410655e56dc4.44.llvm.8755331276361445789
         U anon.31c391fee95154598eab410655e56dc4.45.llvm.8755331276361445789
         U anon.31c391fee95154598eab410655e56dc4.46.llvm.8755331276361445789
         U anon.31c391fee95154598eab410655e56dc4.8.llvm.8755331276361445789
         U anon.56bd365d1d643971001a5ca83dacdd28.0.llvm.11606327675864989281
         U anon.56bd365d1d643971001a5ca83dacdd28.14.llvm.11606327675864989281
         U anon.56bd365d1d643971001a5ca83dacdd28.15.llvm.11606327675864989281
         U anon.68a28ae35e3633ca1cf74f37b006f889.42.llvm.3784525138833777914
00000000 R anon.e6ba466ce09519f01a5076be0561ea9f.15.llvm.17765535580013292967
00000000 R anon.e6ba466ce09519f01a5076be0561ea9f.16.llvm.17765535580013292967
00000000 R anon.e6ba466ce09519f01a5076be0561ea9f.9.llvm.17765535580013292967
         U anon.f2292d77e9643a6bc1b9ed201bcd5392.11.llvm.10084963909090440001
         U anon.f2292d77e9643a6bc1b9ed201bcd5392.12.llvm.10084963909090440001
         U anon.f2292d77e9643a6bc1b9ed201bcd5392.13.llvm.10084963909090440001
         U anon.f2292d77e9643a6bc1b9ed201bcd5392.14.llvm.10084963909090440001
         U anon.f2292d77e9643a6bc1b9ed201bcd5392.15.llvm.10084963909090440001
         U anon.f2292d77e9643a6bc1b9ed201bcd5392.16.llvm.10084963909090440001
00000000 r .Lanon.e6ba466ce09519f01a5076be0561ea9f.10
00000000 r .Lanon.e6ba466ce09519f01a5076be0561ea9f.11
00000000 r .Lanon.e6ba466ce09519f01a5076be0561ea9f.12
00000000 r .Lanon.e6ba466ce09519f01a5076be0561ea9f.13
00000000 r .Lanon.e6ba466ce09519f01a5076be0561ea9f.14
00000000 r .Lanon.e6ba466ce09519f01a5076be0561ea9f.17
00000000 r .Lanon.e6ba466ce09519f01a5076be0561ea9f.18
00000000 r .Lanon.e6ba466ce09519f01a5076be0561ea9f.19
00000000 r .Lanon.e6ba466ce09519f01a5076be0561ea9f.20
00000004 r .Lanon.e6ba466ce09519f01a5076be0561ea9f.21
00000000 r .Lanon.e6ba466ce09519f01a5076be0561ea9f.22
00000000 r .Lanon.e6ba466ce09519f01a5076be0561ea9f.6
00000000 r .Lanon.e6ba466ce09519f01a5076be0561ea9f.7
00000000 r .Lanon.e6ba466ce09519f01a5076be0561ea9f.8
00000000 r str.0
         U __udivdi3
00000000 T _ZN127_$LT$$LT$core..cell..RefCell$LT$T$GT$$u20$as$u20$core..fmt..Debug$GT$..fmt..BorrowedPlaceholder$u20$as$u20$core..fmt..Debug$GT$3fmt17h5cec0932b932447dE
00000000 T _ZN40_$LT$str$u20$as$u20$core..fmt..Debug$GT$3fmt17h5935c569ff34caf0E
00000000 T _ZN41_$LT$char$u20$as$u20$core..fmt..Debug$GT$3fmt17he4fb41665de22614E
00000000 T _ZN42_$LT$$RF$T$u20$as$u20$core..fmt..Debug$GT$3fmt17h0079597495540b08E
00000000 T _ZN42_$LT$$RF$T$u20$as$u20$core..fmt..Debug$GT$3fmt17h071c8b97708e64c4E
00000000 T _ZN42_$LT$$RF$T$u20$as$u20$core..fmt..Debug$GT$3fmt17h08b86e23964828d9E
00000000 T _ZN42_$LT$$RF$T$u20$as$u20$core..fmt..Debug$GT$3fmt17h0d0ff7b38ab303f9E
00000000 T _ZN42_$LT$$RF$T$u20$as$u20$core..fmt..Debug$GT$3fmt17h152bb878f876d824E
00000000 T _ZN42_$LT$$RF$T$u20$as$u20$core..fmt..Debug$GT$3fmt17h2279e80f2348e1afE
00000000 T _ZN42_$LT$$RF$T$u20$as$u20$core..fmt..Debug$GT$3fmt17h3dd42871faf1d270E
00000000 T _ZN42_$LT$$RF$T$u20$as$u20$core..fmt..Debug$GT$3fmt17h53229ae36b7c8cedE
00000000 T _ZN42_$LT$$RF$T$u20$as$u20$core..fmt..Debug$GT$3fmt17h73428e0e360aea83E
00000000 T _ZN42_$LT$$RF$T$u20$as$u20$core..fmt..Debug$GT$3fmt17h7650f461a961fc63E
00000000 T _ZN42_$LT$$RF$T$u20$as$u20$core..fmt..Debug$GT$3fmt17h7d12d9fa6e3b4690E
00000000 T _ZN42_$LT$$RF$T$u20$as$u20$core..fmt..Debug$GT$3fmt17hacf5a3755c9565c1E
00000000 T _ZN42_$LT$$RF$T$u20$as$u20$core..fmt..Debug$GT$3fmt17haefa60bf8c5954f0E
00000000 T _ZN42_$LT$$RF$T$u20$as$u20$core..fmt..Debug$GT$3fmt17hb368d3d16c88e5caE
00000000 T _ZN42_$LT$$RF$T$u20$as$u20$core..fmt..Debug$GT$3fmt17hbb30bd8133600c3dE
00000000 T _ZN42_$LT$$RF$T$u20$as$u20$core..fmt..Debug$GT$3fmt17hc67a869f6630c263E
00000000 T _ZN42_$LT$$RF$T$u20$as$u20$core..fmt..Debug$GT$3fmt17hcd5ce40fe14a66edE
00000000 T _ZN42_$LT$$RF$T$u20$as$u20$core..fmt..Debug$GT$3fmt17hcda6f419c5ab6c21E
00000000 T _ZN42_$LT$$RF$T$u20$as$u20$core..fmt..Debug$GT$3fmt17hea0d775ed95d904bE
00000000 T _ZN42_$LT$$RF$T$u20$as$u20$core..fmt..Debug$GT$3fmt17hefbbd91fbf1e84ceE
00000000 T _ZN42_$LT$$RF$T$u20$as$u20$core..fmt..Debug$GT$3fmt17hefffefdb1c4e8d2fE
00000000 T _ZN42_$LT$$u21$$u20$as$u20$core..fmt..Debug$GT$3fmt17h9f6a4d738237ea7dE
00000000 T _ZN42_$LT$str$u20$as$u20$core..fmt..Display$GT$3fmt17hcc2872cfc19a25ebE
00000000 T _ZN43_$LT$bool$u20$as$u20$core..fmt..Display$GT$3fmt17h5103579105dfd91aE
00000000 T _ZN43_$LT$char$u20$as$u20$core..fmt..Display$GT$3fmt17h8d9194dfbda77109E
00000000 T _ZN44_$LT$$RF$T$u20$as$u20$core..fmt..Display$GT$3fmt17h1e371c781fcbf6abE
00000000 T _ZN44_$LT$$RF$T$u20$as$u20$core..fmt..Display$GT$3fmt17ha84158601fd3a138E
00000000 T _ZN44_$LT$$RF$T$u20$as$u20$core..fmt..Display$GT$3fmt17hb67c48be4f89f370E
00000000 T _ZN44_$LT$$u21$$u20$as$u20$core..fmt..Display$GT$3fmt17h817f370397a8d902E
00000000 T _ZN4core3fmt10ArgumentV110from_usize17hc47dec0968fd4715E
00000000 T _ZN4core3fmt10ArgumentV110show_usize17hffe0473dd7b3efedE.llvm.17765535580013292967
00000000 T _ZN4core3fmt10ArgumentV13new17h00be5d1f845f3da1E
00000000 T _ZN4core3fmt10ArgumentV13new17h25f7c8eca9481008E
00000000 T _ZN4core3fmt10ArgumentV13new17h2f01f1f158742c24E
00000000 T _ZN4core3fmt10ArgumentV13new17h529bad16c0883718E
00000000 T _ZN4core3fmt10ArgumentV13new17h771019993fad29f8E
00000000 T _ZN4core3fmt10ArgumentV13new17h8096727af449ffe5E
00000000 T _ZN4core3fmt10ArgumentV13new17h8fa5aa33c6490267E
00000000 T _ZN4core3fmt10ArgumentV13new17h92ced91d1aeece47E
00000000 T _ZN4core3fmt10ArgumentV13new17h9d9f52881334899aE
00000000 T _ZN4core3fmt10ArgumentV13new17hc38ac0997eac351eE
00000000 T _ZN4core3fmt10ArgumentV13new17hcd337e09375fae26E
00000000 T _ZN4core3fmt10ArgumentV13new17hdf7919b19b26a778E
00000000 T _ZN4core3fmt10ArgumentV13new17he62612d7f49fa9a0E
00000000 T _ZN4core3fmt10ArgumentV13new17he846e7fb2cb58a88E
00000000 T _ZN4core3fmt10ArgumentV13new17hff73783ecc299627E
         U _ZN4core3fmt3num52_$LT$impl$u20$core..fmt..Display$u20$for$u20$i16$GT$3fmt17hfdac02f9530428ffE
         U _ZN4core3fmt3num52_$LT$impl$u20$core..fmt..Display$u20$for$u20$i32$GT$3fmt17h44ac88cb8d5161b5E
         U _ZN4core3fmt3num52_$LT$impl$u20$core..fmt..Display$u20$for$u20$i64$GT$3fmt17h1840576384a0b112E
         U _ZN4core3fmt5float29float_to_decimal_common_exact17h2cb554924f65e8bdE.llvm.17782236113135433245
         U _ZN4core3fmt5float29float_to_decimal_common_exact17hdfe9b1197da86d27E.llvm.17782236113135433245
         U _ZN4core3fmt5float32float_to_decimal_common_shortest17h30356f2a95593ce0E.llvm.17782236113135433245
         U _ZN4core3fmt5float32float_to_decimal_common_shortest17h929fa6660c5dedb8E.llvm.17782236113135433245
         U _ZN4core3fmt5Write10write_char17ha0cc9742757e1e13E
00000000 T _ZN4core3fmt5write17h1d5b0e1e227ed20cE
         U _ZN4core3fmt5Write9write_fmt17h7432d42741af81adE
         U _ZN4core3fmt8builders10DebugInner5entry17h427cf8739122aa6bE.llvm.8755331276361445789
00000000 T _ZN4core3fmt9Formatter10debug_list17ha99692701e559155E
00000000 T _ZN4core3fmt9Formatter10sign_minus17h0a27099c84e06138E
00000000 T _ZN4core3fmt9Formatter11debug_tuple17h7b3dd6b5d5b23dfaE
00000000 T _ZN4core3fmt9Formatter12debug_struct17h089b2a681d4c0e59E
00000000 T _ZN4core3fmt9Formatter12pad_integral17hd956203cec70dfa5E
00000000 T _ZN4core3fmt9Formatter15debug_lower_hex17hc301448d6c60e97bE
00000000 T _ZN4core3fmt9Formatter15debug_upper_hex17h154aef0ada9adb41E
00000000 T _ZN4core3fmt9Formatter19pad_formatted_parts17h92d93e415ac0d084E
00000000 T _ZN4core3fmt9Formatter19sign_aware_zero_pad17h4c5e675764d0c23bE
00000000 t _ZN4core3fmt9Formatter21write_formatted_parts17h4d53f05288cba470E
00000000 T _ZN4core3fmt9Formatter3pad17hac9c222c747c13c3E
00000000 T _ZN4core3fmt9Formatter4fill17h2b9a02b63c7d1548E
00000000 T _ZN4core3fmt9Formatter5align17h59dec94d08e33a25E
00000000 T _ZN4core3fmt9Formatter5flags17h96eeb7506ad5da1bE
00000000 T _ZN4core3fmt9Formatter5width17hb5a971def1edd157E
00000000 T _ZN4core3fmt9Formatter8wrap_buf17hd45e99593fb1231bE
00000000 T _ZN4core3fmt9Formatter9alternate17hd4f838fa3c8445faE
00000000 T _ZN4core3fmt9Formatter9debug_map17h81d0f368280709ebE
00000000 T _ZN4core3fmt9Formatter9debug_set17h691157bcfebba971E
00000000 T _ZN4core3fmt9Formatter9precision17h47d5e7d33f898bb6E
00000000 T _ZN4core3fmt9Formatter9sign_plus17hdec4ea7dba8e4bb3E
00000000 T _ZN4core3fmt9Formatter9write_fmt17h0fe4c20d4970a214E
00000000 T _ZN4core3fmt9Formatter9write_str17ha6ab52c17e57476aE
00000000 t _ZN4core3ptr18real_drop_in_place17h2a628fd44e52d94dE
         U _ZN4core3str16slice_error_fail17h225490166b88293dE
00000000 t _ZN4core3str6traits101_$LT$impl$u20$core..slice..SliceIndex$LT$str$GT$$u20$for$u20$core..ops..range..Range$LT$usize$GT$$GT$5index28_$u7b$$u7b$closure$u7d$$u7d$17h657b9678e24868caE
00000000 t _ZN4core3str6traits103_$LT$impl$u20$core..slice..SliceIndex$LT$str$GT$$u20$for$u20$core..ops..range..RangeTo$LT$usize$GT$$GT$5index28_$u7b$$u7b$closure$u7d$$u7d$17hc9f7bad8f7341831E
         U _ZN4core5slice20slice_index_len_fail17h1de6582f5b25970aE
         U _ZN4core5slice22slice_index_order_fail17h5c97dc70a1ee6408E
         U _ZN4core7unicode9bool_trie8BoolTrie6lookup17hf8fc79705f167984E
         U _ZN4core7unicode9printable5check17h1ee741988245a625E.llvm.10084963909090440001
         U _ZN4core9panicking18panic_bounds_check17h1fc4ec65e9eda7d0E
         U _ZN4core9panicking5panic17hb5d102504e882c92E
00000000 T _ZN50_$LT$T$u20$as$u20$core..convert..From$LT$T$GT$$GT$4from17h4d41c8f0b6ee6d21E
00000000 T _ZN52_$LT$$BP$mut$u20$T$u20$as$u20$core..fmt..Pointer$GT$3fmt17hc7376131a0436119E
00000000 T _ZN53_$LT$core..fmt..Error$u20$as$u20$core..fmt..Debug$GT$3fmt17h88ceb322ffff5855E
00000000 T _ZN55_$LT$core..fmt..Error$u20$as$u20$core..fmt..Display$GT$3fmt17h4e60b725715c79beE
00000000 T _ZN57_$LT$core..fmt..Alignment$u20$as$u20$core..fmt..Debug$GT$3fmt17hdac429c8b62db5cfE
00000000 T _ZN71_$LT$core..fmt..Arguments$LT$$u27$_$GT$$u20$as$u20$core..fmt..Debug$GT$3fmt17hcbc5da0deed4014eE
00000000 T _ZN71_$LT$core..fmt..Formatter$LT$$u27$_$GT$$u20$as$u20$core..fmt..Write$GT$10write_char17h49cb7ba9e4f810acE
00000000 T _ZN71_$LT$core..fmt..Formatter$LT$$u27$_$GT$$u20$as$u20$core..fmt..Write$GT$9write_fmt17h2577f19498fa471fE
00000000 T _ZN71_$LT$core..fmt..Formatter$LT$$u27$_$GT$$u20$as$u20$core..fmt..Write$GT$9write_str17hd61d93c7b24aa653E
00000000 T _ZN73_$LT$core..fmt..Arguments$LT$$u27$_$GT$$u20$as$u20$core..fmt..Display$GT$3fmt17h7b39b6637f67df16E
         U _ZN82_$LT$core..fmt..builders..PadAdapter$LT$$u27$_$GT$$u20$as$u20$core..fmt..Write$GT$9write_str17hd9531ee813236af3E

core-87b341ced06d2d9e.core.9r1ss7xu-cgu.5.rcgu.o:
         U abort
         U anon.31c391fee95154598eab410655e56dc4.28.llvm.8755331276361445789
         U anon.31c391fee95154598eab410655e56dc4.30.llvm.8755331276361445789
         U anon.31c391fee95154598eab410655e56dc4.33.llvm.8755331276361445789
         U anon.31c391fee95154598eab410655e56dc4.34.llvm.8755331276361445789
         U anon.31c391fee95154598eab410655e56dc4.36.llvm.8755331276361445789
         U anon.56bd365d1d643971001a5ca83dacdd28.0.llvm.11606327675864989281
         U anon.56bd365d1d643971001a5ca83dacdd28.14.llvm.11606327675864989281
         U anon.56bd365d1d643971001a5ca83dacdd28.15.llvm.11606327675864989281
         U anon.68a28ae35e3633ca1cf74f37b006f889.42.llvm.3784525138833777914
00000000 R anon.81d10f071a37c3d37778e7fcc2dd259e.25.llvm.14122202228466798186
00000000 R anon.81d10f071a37c3d37778e7fcc2dd259e.26.llvm.14122202228466798186
00000000 R anon.81d10f071a37c3d37778e7fcc2dd259e.27.llvm.14122202228466798186
00000000 R anon.81d10f071a37c3d37778e7fcc2dd259e.28.llvm.14122202228466798186
00000000 R anon.81d10f071a37c3d37778e7fcc2dd259e.29.llvm.14122202228466798186
00000000 R anon.81d10f071a37c3d37778e7fcc2dd259e.30.llvm.14122202228466798186
00000000 R anon.81d10f071a37c3d37778e7fcc2dd259e.5.llvm.14122202228466798186
         U anon.c5d92e35bb314b2a65a5cdebb17cf7ca.2.llvm.6291908229003587561
         U anon.c5d92e35bb314b2a65a5cdebb17cf7ca.4.llvm.6291908229003587561
         U anon.c5d92e35bb314b2a65a5cdebb17cf7ca.8.llvm.6291908229003587561
         U anon.f2292d77e9643a6bc1b9ed201bcd5392.11.llvm.10084963909090440001
         U anon.f2292d77e9643a6bc1b9ed201bcd5392.12.llvm.10084963909090440001
         U anon.f2292d77e9643a6bc1b9ed201bcd5392.13.llvm.10084963909090440001
         U anon.f2292d77e9643a6bc1b9ed201bcd5392.14.llvm.10084963909090440001
         U anon.f2292d77e9643a6bc1b9ed201bcd5392.15.llvm.10084963909090440001
         U anon.f2292d77e9643a6bc1b9ed201bcd5392.16.llvm.10084963909090440001
         U __ashldi3
00000000 r .Lanon.81d10f071a37c3d37778e7fcc2dd259e.0
00000000 r .Lanon.81d10f071a37c3d37778e7fcc2dd259e.1
00000000 r .Lanon.81d10f071a37c3d37778e7fcc2dd259e.10
00000000 r .Lanon.81d10f071a37c3d37778e7fcc2dd259e.11
00000000 r .Lanon.81d10f071a37c3d37778e7fcc2dd259e.18
00000000 r .Lanon.81d10f071a37c3d37778e7fcc2dd259e.19
00000000 r .Lanon.81d10f071a37c3d37778e7fcc2dd259e.2
00000000 r .Lanon.81d10f071a37c3d37778e7fcc2dd259e.20
00000000 r .Lanon.81d10f071a37c3d37778e7fcc2dd259e.21
00000000 r .Lanon.81d10f071a37c3d37778e7fcc2dd259e.22
00000000 r .Lanon.81d10f071a37c3d37778e7fcc2dd259e.23
00000000 r .Lanon.81d10f071a37c3d37778e7fcc2dd259e.24
00000000 r .Lanon.81d10f071a37c3d37778e7fcc2dd259e.3
00000000 r .Lanon.81d10f071a37c3d37778e7fcc2dd259e.31
00000000 r .Lanon.81d10f071a37c3d37778e7fcc2dd259e.32
00000000 r .Lanon.81d10f071a37c3d37778e7fcc2dd259e.33
00000000 r .Lanon.81d10f071a37c3d37778e7fcc2dd259e.34
00000000 r .Lanon.81d10f071a37c3d37778e7fcc2dd259e.35
00000000 r .Lanon.81d10f071a37c3d37778e7fcc2dd259e.36
00000000 r .Lanon.81d10f071a37c3d37778e7fcc2dd259e.37
00000000 r .Lanon.81d10f071a37c3d37778e7fcc2dd259e.38
00000000 r .Lanon.81d10f071a37c3d37778e7fcc2dd259e.39
00000000 r .Lanon.81d10f071a37c3d37778e7fcc2dd259e.4
00000000 r .Lanon.81d10f071a37c3d37778e7fcc2dd259e.40
00000000 r .Lanon.81d10f071a37c3d37778e7fcc2dd259e.41
00000000 r .Lanon.81d10f071a37c3d37778e7fcc2dd259e.42
00000000 r .Lanon.81d10f071a37c3d37778e7fcc2dd259e.43
00000000 r .Lanon.81d10f071a37c3d37778e7fcc2dd259e.44
00000000 r .Lanon.81d10f071a37c3d37778e7fcc2dd259e.45
00000000 r .Lanon.81d10f071a37c3d37778e7fcc2dd259e.46
00000000 r .Lanon.81d10f071a37c3d37778e7fcc2dd259e.47
00000000 r .Lanon.81d10f071a37c3d37778e7fcc2dd259e.48
00000000 r .Lanon.81d10f071a37c3d37778e7fcc2dd259e.49
00000000 r .Lanon.81d10f071a37c3d37778e7fcc2dd259e.50
00000000 r .Lanon.81d10f071a37c3d37778e7fcc2dd259e.51
00000000 r .Lanon.81d10f071a37c3d37778e7fcc2dd259e.52
00000000 r .Lanon.81d10f071a37c3d37778e7fcc2dd259e.53
00000004 r .Lanon.81d10f071a37c3d37778e7fcc2dd259e.54
00000000 r .Lanon.81d10f071a37c3d37778e7fcc2dd259e.55
00000000 r .Lanon.81d10f071a37c3d37778e7fcc2dd259e.56
00000000 r .Lanon.81d10f071a37c3d37778e7fcc2dd259e.57
00000000 r .Lanon.81d10f071a37c3d37778e7fcc2dd259e.58
00000000 r .Lanon.81d10f071a37c3d37778e7fcc2dd259e.59
00000000 r .Lanon.81d10f071a37c3d37778e7fcc2dd259e.6
00000000 r .Lanon.81d10f071a37c3d37778e7fcc2dd259e.60
00000000 r .Lanon.81d10f071a37c3d37778e7fcc2dd259e.61
00000000 r .Lanon.81d10f071a37c3d37778e7fcc2dd259e.62
00000000 r .Lanon.81d10f071a37c3d37778e7fcc2dd259e.63
00000000 r .Lanon.81d10f071a37c3d37778e7fcc2dd259e.64
00000000 r .Lanon.81d10f071a37c3d37778e7fcc2dd259e.65
00000000 r .Lanon.81d10f071a37c3d37778e7fcc2dd259e.7
00000000 r .Lanon.81d10f071a37c3d37778e7fcc2dd259e.8
00000000 r .Lanon.81d10f071a37c3d37778e7fcc2dd259e.9
         U memcpy
         U memset
00000000 r str.0
00000000 r str.2
00000000 T _ZN102_$LT$core..str..lossy..Utf8LossyChunksIter$LT$$u27$a$GT$$u20$as$u20$core..iter..iterator..Iterator$GT$4next17h7faf2cb882bbee03E
         U _ZN42_$LT$$RF$T$u20$as$u20$core..fmt..Debug$GT$3fmt17h071c8b97708e64c4E
         U _ZN42_$LT$$RF$T$u20$as$u20$core..fmt..Debug$GT$3fmt17h0d0ff7b38ab303f9E
         U _ZN42_$LT$$RF$T$u20$as$u20$core..fmt..Debug$GT$3fmt17h1e483b82c7d34661E
00000000 t _ZN42_$LT$$RF$T$u20$as$u20$core..fmt..Debug$GT$3fmt17h21bee1662f12d3d1E
         U _ZN42_$LT$$RF$T$u20$as$u20$core..fmt..Debug$GT$3fmt17h2a8d702b62695f22E
00000000 t _ZN42_$LT$$RF$T$u20$as$u20$core..fmt..Debug$GT$3fmt17h2ba6eae09d31ef77E
00000000 t _ZN42_$LT$$RF$T$u20$as$u20$core..fmt..Debug$GT$3fmt17h951967c802591577E
00000000 t _ZN42_$LT$$RF$T$u20$as$u20$core..fmt..Debug$GT$3fmt17ha7947197058e5a03E
         U _ZN42_$LT$$RF$T$u20$as$u20$core..fmt..Debug$GT$3fmt17hacf5a3755c9565c1E
         U _ZN42_$LT$$RF$T$u20$as$u20$core..fmt..Debug$GT$3fmt17haefa60bf8c5954f0E
         U _ZN42_$LT$$RF$T$u20$as$u20$core..fmt..Debug$GT$3fmt17hea0d775ed95d904bE
00000000 t _ZN4core3fmt3num52_$LT$impl$u20$core..fmt..Debug$u20$for$u20$usize$GT$3fmt17h2e8d7162c3254847E
         U _ZN4core3fmt3num52_$LT$impl$u20$core..fmt..LowerHex$u20$for$u20$u8$GT$3fmt17h561ac22e2444de11E
         U _ZN4core3fmt3num53_$LT$impl$u20$core..fmt..LowerHex$u20$for$u20$u16$GT$3fmt17hcace5e3a61c0a8b2E
         U _ZN4core3fmt5write17h1d5b0e1e227ed20cE
         U _ZN4core3fmt8builders10DebugTuple5field17hdeeb14ec9411353fE
         U _ZN4core3fmt8builders11DebugStruct5field17haa057cbf88084cceE
         U _ZN4core3fmt9Formatter12pad_integral17hd956203cec70dfa5E
         U _ZN4core3fmt9Formatter3pad17hac9c222c747c13c3E
00000000 T _ZN4core3num7dec2flt3num13digits_to_big17h95d9f696a4d0190fE
00000000 T _ZN4core3num7dec2flt3num18from_str_unchecked17hd4cffd0faef3a022E
00000000 T _ZN4core3num7dec2flt3num21compare_with_half_ulp17hb618a815d047d22dE
00000000 T _ZN4core3num7dec2flt3num6to_u6417habd632853f0b493aE
00000000 T _ZN4core3num7dec2flt3num8get_bits17hc6074b9f72b52aa6E
00000000 t _ZN4core3ptr18real_drop_in_place17h0b3572d52b14d96bE
         U _ZN4core3str15UTF8_CHAR_WIDTH17h7023363f1724a181E
         U _ZN4core3str16slice_error_fail17h225490166b88293dE
00000000 T _ZN4core3str5lossy9Utf8Lossy10from_bytes17h29170cdc642d53a0E
00000000 T _ZN4core3str5lossy9Utf8Lossy6chunks17h859e2865869c4fb3E
00000000 T _ZN4core3str5lossy9Utf8Lossy8from_str17h634f1bda4a27df42E
00000000 t _ZN4core3str6traits101_$LT$impl$u20$core..slice..SliceIndex$LT$str$GT$$u20$for$u20$core..ops..range..Range$LT$usize$GT$$GT$5index28_$u7b$$u7b$closure$u7d$$u7d$17h657b9678e24868caE
00000000 T _ZN4core4char6decode16DecodeUtf16Error18unpaired_surrogate17ha74169fc660705beE
         U _ZN4core5slice20slice_index_len_fail17h1de6582f5b25970aE
         U _ZN4core5slice22slice_index_order_fail17h5c97dc70a1ee6408E
00000000 T _ZN4core7unicode9bool_trie13SmallBoolTrie6lookup17h9f625f159fc87132E
00000000 T _ZN4core7unicode9bool_trie8BoolTrie6lookup17hf8fc79705f167984E
         U _ZN4core7unicode9printable5check17h1ee741988245a625E.llvm.10084963909090440001
         U _ZN4core9panicking18panic_bounds_check17h1fc4ec65e9eda7d0E
         U _ZN4core9panicking5panic17hb5d102504e882c92E
00000000 T _ZN54_$LT$I$u20$as$u20$core..iter..traits..IntoIterator$GT$9into_iter17h4f5fe6296a9d0a56E
00000000 T _ZN59_$LT$core..hash..sip..State$u20$as$u20$core..fmt..Debug$GT$3fmt17hbeeeb39f826baee8E
00000000 T _ZN63_$LT$core..hash..sip..SipHasher$u20$as$u20$core..fmt..Debug$GT$3fmt17h8b2dabdd48a4848eE
00000000 T _ZN64_$LT$core..ops..range..RangeFull$u20$as$u20$core..fmt..Debug$GT$3fmt17h02ef6816306b356cE
00000000 T _ZN64_$LT$core..str..lossy..Utf8Lossy$u20$as$u20$core..fmt..Debug$GT$3fmt17haa69e516bc9348f1E
00000000 T _ZN65_$LT$core..hash..sip..Sip13Rounds$u20$as$u20$core..fmt..Debug$GT$3fmt17h9fb7c311d6e788b0E
00000000 T _ZN65_$LT$core..hash..sip..Sip24Rounds$u20$as$u20$core..fmt..Debug$GT$3fmt17h8ef77ffa3024df6dE
00000000 T _ZN65_$LT$core..hash..sip..SipHasher13$u20$as$u20$core..fmt..Debug$GT$3fmt17h52c9aa4fc7742a47E
00000000 T _ZN65_$LT$core..hash..sip..SipHasher24$u20$as$u20$core..fmt..Debug$GT$3fmt17h4829638ad7b2f085E
00000000 T _ZN66_$LT$core..str..lossy..Utf8Lossy$u20$as$u20$core..fmt..Display$GT$3fmt17h882bdaf85412775aE
00000000 T _ZN71_$LT$core..ops..range..Range$LT$Idx$GT$$u20$as$u20$core..fmt..Debug$GT$3fmt17h3c7e2c6674dc3acbE
00000000 T _ZN73_$LT$core..char..decode..DecodeUtf16Error$u20$as$u20$core..fmt..Debug$GT$3fmt17hd6e8d321f2423087E
00000000 T _ZN75_$LT$core..char..decode..DecodeUtf16Error$u20$as$u20$core..fmt..Display$GT$3fmt17h6783c685038c0e93E
         U _ZN75_$LT$core..iter..Rev$LT$I$GT$$u20$as$u20$core..iter..iterator..Iterator$GT$8try_fold17h3d24ec21f712f691E
00000000 T _ZN83_$LT$core..str..lossy..Utf8LossyChunk$LT$$u27$a$GT$$u20$as$u20$core..fmt..Debug$GT$3fmt17hc6f45671beccd070E

core-87b341ced06d2d9e.core.9r1ss7xu-cgu.6.rcgu.o:
         U abort
00000000 R anon.c5d92e35bb314b2a65a5cdebb17cf7ca.0.llvm.6291908229003587561
00000000 R anon.c5d92e35bb314b2a65a5cdebb17cf7ca.1.llvm.6291908229003587561
00000000 R anon.c5d92e35bb314b2a65a5cdebb17cf7ca.21.llvm.6291908229003587561
00000000 R anon.c5d92e35bb314b2a65a5cdebb17cf7ca.2.llvm.6291908229003587561
00000000 R anon.c5d92e35bb314b2a65a5cdebb17cf7ca.3.llvm.6291908229003587561
00000000 R anon.c5d92e35bb314b2a65a5cdebb17cf7ca.4.llvm.6291908229003587561
00000000 R anon.c5d92e35bb314b2a65a5cdebb17cf7ca.7.llvm.6291908229003587561
00000000 R anon.c5d92e35bb314b2a65a5cdebb17cf7ca.8.llvm.6291908229003587561
00000000 r .Lanon.c5d92e35bb314b2a65a5cdebb17cf7ca.10
00000000 r .Lanon.c5d92e35bb314b2a65a5cdebb17cf7ca.11
00000000 r .Lanon.c5d92e35bb314b2a65a5cdebb17cf7ca.12
00000000 r .Lanon.c5d92e35bb314b2a65a5cdebb17cf7ca.13
00000000 r .Lanon.c5d92e35bb314b2a65a5cdebb17cf7ca.14
00000000 r .Lanon.c5d92e35bb314b2a65a5cdebb17cf7ca.15
00000000 r .Lanon.c5d92e35bb314b2a65a5cdebb17cf7ca.16
00000000 r .Lanon.c5d92e35bb314b2a65a5cdebb17cf7ca.17
00000000 r .Lanon.c5d92e35bb314b2a65a5cdebb17cf7ca.18
00000000 r .Lanon.c5d92e35bb314b2a65a5cdebb17cf7ca.19
00000000 r .Lanon.c5d92e35bb314b2a65a5cdebb17cf7ca.20
00000000 r .Lanon.c5d92e35bb314b2a65a5cdebb17cf7ca.22
00000000 r .Lanon.c5d92e35bb314b2a65a5cdebb17cf7ca.23
00000000 r .Lanon.c5d92e35bb314b2a65a5cdebb17cf7ca.24
00000000 r .Lanon.c5d92e35bb314b2a65a5cdebb17cf7ca.25
00000000 r .Lanon.c5d92e35bb314b2a65a5cdebb17cf7ca.26
00000000 r .Lanon.c5d92e35bb314b2a65a5cdebb17cf7ca.27
00000000 r .Lanon.c5d92e35bb314b2a65a5cdebb17cf7ca.28
00000000 r .Lanon.c5d92e35bb314b2a65a5cdebb17cf7ca.29
00000000 r .Lanon.c5d92e35bb314b2a65a5cdebb17cf7ca.30
00000000 r .Lanon.c5d92e35bb314b2a65a5cdebb17cf7ca.5
00000000 r .Lanon.c5d92e35bb314b2a65a5cdebb17cf7ca.6
00000000 r .Lanon.c5d92e35bb314b2a65a5cdebb17cf7ca.9
         U memcmp
         U memcpy
         U memset
00000000 r str.0
00000000 r str.1
         U __udivdi3
00000000 T _ZN49_$LT$u8$u20$as$u20$core..num..bignum..FullOps$GT$12full_div_rem17h66b4b8fa0fb8cdd4E
00000000 T _ZN49_$LT$u8$u20$as$u20$core..num..bignum..FullOps$GT$12full_mul_add17heecf693bdba5ac61E
00000000 T _ZN49_$LT$u8$u20$as$u20$core..num..bignum..FullOps$GT$8full_add17ha313238e26718f34E
00000000 T _ZN49_$LT$u8$u20$as$u20$core..num..bignum..FullOps$GT$8full_mul17he63cc71364737accE
         U _ZN4core3fmt10ArgumentV110show_usize17hffe0473dd7b3efedE.llvm.17765535580013292967
         U _ZN4core3fmt3num53_$LT$impl$u20$core..fmt..LowerHex$u20$for$u20$u32$GT$3fmt17hcca62a9c54b557ceE
         U _ZN4core3fmt5write17h1d5b0e1e227ed20cE
00000000 T _ZN4core3num6bignum8Big32x4010bit_length17h21eecdee0458dc38E
00000000 T _ZN4core3num6bignum8Big32x4010from_small17h3a66d075074a0a47E
00000000 T _ZN4core3num6bignum8Big32x4010mul_digits17h9b678db49a5fdc01E
00000000 T _ZN4core3num6bignum8Big32x4010mul_digits9mul_inner17h06a74e25549cf110E.llvm.6291908229003587561
00000000 T _ZN4core3num6bignum8Big32x4013div_rem_small17h7a573755db4f1ca7E
00000000 T _ZN4core3num6bignum8Big32x403add17hb7e6dd130ce5dae5E
00000000 T _ZN4core3num6bignum8Big32x403sub17h94b4824180d08894E
00000000 T _ZN4core3num6bignum8Big32x406digits17h0c490111c820ac9cE
00000000 T _ZN4core3num6bignum8Big32x407div_rem17h3ef867559ebcb3ecE
00000000 T _ZN4core3num6bignum8Big32x407get_bit17h01c07a031872725bE
00000000 T _ZN4core3num6bignum8Big32x407is_zero17h44e41834eb4edbebE
00000000 T _ZN4core3num6bignum8Big32x408from_u6417h520ce8985b1de455E
00000000 T _ZN4core3num6bignum8Big32x408mul_pow217hb43065941df1350fE
00000000 T _ZN4core3num6bignum8Big32x408mul_pow517h723bd448021a4d0fE
00000000 T _ZN4core3num6bignum8Big32x409add_small17hb83765169747b578E
00000000 T _ZN4core3num6bignum8Big32x409mul_small17h0e8fbdcb858d3292E
         U _ZN4core5slice20slice_index_len_fail17h1de6582f5b25970aE
         U _ZN4core9panicking18panic_bounds_check17h1fc4ec65e9eda7d0E
         U _ZN4core9panicking5panic17hb5d102504e882c92E
00000000 T _ZN50_$LT$u16$u20$as$u20$core..num..bignum..FullOps$GT$12full_div_rem17hec48679ff7e64c76E
00000000 T _ZN50_$LT$u16$u20$as$u20$core..num..bignum..FullOps$GT$12full_mul_add17hf1e3195b3441da60E
00000000 T _ZN50_$LT$u16$u20$as$u20$core..num..bignum..FullOps$GT$8full_add17hcda34691ac150ab0E
00000000 T _ZN50_$LT$u16$u20$as$u20$core..num..bignum..FullOps$GT$8full_mul17hca55dfe6266a5579E
00000000 T _ZN50_$LT$u32$u20$as$u20$core..num..bignum..FullOps$GT$12full_div_rem17h66fa1d8275d9ab99E
00000000 T _ZN50_$LT$u32$u20$as$u20$core..num..bignum..FullOps$GT$12full_mul_add17hdd48f0ff9a75820cE
00000000 T _ZN50_$LT$u32$u20$as$u20$core..num..bignum..FullOps$GT$8full_add17ha8e2f321ea201b8cE
00000000 T _ZN50_$LT$u32$u20$as$u20$core..num..bignum..FullOps$GT$8full_mul17hfadb96916142fbbcE
00000000 T _ZN62_$LT$core..num..bignum..Big32x40$u20$as$u20$core..cmp..Ord$GT$3cmp17hd79e412e3478b859E
00000000 T _ZN64_$LT$core..num..bignum..Big32x40$u20$as$u20$core..fmt..Debug$GT$3fmt17h622fbba8462e356cE
00000000 T _ZN66_$LT$core..num..bignum..Big32x40$u20$as$u20$core..clone..Clone$GT$5clone17h69f4c093f2377816E
00000000 T _ZN68_$LT$core..num..bignum..Big32x40$u20$as$u20$core..cmp..PartialEq$GT$2eq17hff1d70a9f40b3cabE
00000000 T _ZN69_$LT$core..num..bignum..Big32x40$u20$as$u20$core..cmp..PartialOrd$GT$11partial_cmp17h1eda147e02727ffdE

core-87b341ced06d2d9e.core.9r1ss7xu-cgu.7.rcgu.o:
         U abort
         U anon.31c391fee95154598eab410655e56dc4.28.llvm.8755331276361445789
         U anon.31c391fee95154598eab410655e56dc4.30.llvm.8755331276361445789
         U anon.31c391fee95154598eab410655e56dc4.33.llvm.8755331276361445789
         U anon.31c391fee95154598eab410655e56dc4.34.llvm.8755331276361445789
         U anon.31c391fee95154598eab410655e56dc4.36.llvm.8755331276361445789
         U anon.c5d92e35bb314b2a65a5cdebb17cf7ca.1.llvm.6291908229003587561
         U anon.c5d92e35bb314b2a65a5cdebb17cf7ca.21.llvm.6291908229003587561
         U anon.c5d92e35bb314b2a65a5cdebb17cf7ca.3.llvm.6291908229003587561
         U anon.c5d92e35bb314b2a65a5cdebb17cf7ca.7.llvm.6291908229003587561
         U anon.c5d92e35bb314b2a65a5cdebb17cf7ca.8.llvm.6291908229003587561
00000000 r .Lanon.11942e7ff1a7de83e586c6bb09d9b4ee.0
00000000 r .Lanon.11942e7ff1a7de83e586c6bb09d9b4ee.1
00000000 r .Lanon.11942e7ff1a7de83e586c6bb09d9b4ee.10
00000000 r .Lanon.11942e7ff1a7de83e586c6bb09d9b4ee.11
00000000 r .Lanon.11942e7ff1a7de83e586c6bb09d9b4ee.12
00000000 r .Lanon.11942e7ff1a7de83e586c6bb09d9b4ee.13
00000000 r .Lanon.11942e7ff1a7de83e586c6bb09d9b4ee.14
00000000 r .Lanon.11942e7ff1a7de83e586c6bb09d9b4ee.15
00000000 r .Lanon.11942e7ff1a7de83e586c6bb09d9b4ee.16
00000000 r .Lanon.11942e7ff1a7de83e586c6bb09d9b4ee.17
00000000 r .Lanon.11942e7ff1a7de83e586c6bb09d9b4ee.18
00000000 r .Lanon.11942e7ff1a7de83e586c6bb09d9b4ee.19
00000000 r .Lanon.11942e7ff1a7de83e586c6bb09d9b4ee.2
00000000 r .Lanon.11942e7ff1a7de83e586c6bb09d9b4ee.20
00000000 r .Lanon.11942e7ff1a7de83e586c6bb09d9b4ee.21
00000000 r .Lanon.11942e7ff1a7de83e586c6bb09d9b4ee.22
00000000 r .Lanon.11942e7ff1a7de83e586c6bb09d9b4ee.23
00000000 r .Lanon.11942e7ff1a7de83e586c6bb09d9b4ee.24
00000000 r .Lanon.11942e7ff1a7de83e586c6bb09d9b4ee.25
00000000 r .Lanon.11942e7ff1a7de83e586c6bb09d9b4ee.26
00000000 r .Lanon.11942e7ff1a7de83e586c6bb09d9b4ee.27
00000000 r .Lanon.11942e7ff1a7de83e586c6bb09d9b4ee.28
00000000 r .Lanon.11942e7ff1a7de83e586c6bb09d9b4ee.29
00000000 r .Lanon.11942e7ff1a7de83e586c6bb09d9b4ee.3
00000000 r .Lanon.11942e7ff1a7de83e586c6bb09d9b4ee.30
00000000 r .Lanon.11942e7ff1a7de83e586c6bb09d9b4ee.31
00000000 r .Lanon.11942e7ff1a7de83e586c6bb09d9b4ee.32
00000000 r .Lanon.11942e7ff1a7de83e586c6bb09d9b4ee.33
00000004 r .Lanon.11942e7ff1a7de83e586c6bb09d9b4ee.34
00000000 r .Lanon.11942e7ff1a7de83e586c6bb09d9b4ee.35
00000000 r .Lanon.11942e7ff1a7de83e586c6bb09d9b4ee.36
00000000 r .Lanon.11942e7ff1a7de83e586c6bb09d9b4ee.37
00000000 r .Lanon.11942e7ff1a7de83e586c6bb09d9b4ee.38
00000008 r .Lanon.11942e7ff1a7de83e586c6bb09d9b4ee.39
00000000 r .Lanon.11942e7ff1a7de83e586c6bb09d9b4ee.4
00000000 r .Lanon.11942e7ff1a7de83e586c6bb09d9b4ee.40
00000000 r .Lanon.11942e7ff1a7de83e586c6bb09d9b4ee.41
00000000 r .Lanon.11942e7ff1a7de83e586c6bb09d9b4ee.42
00000000 r .Lanon.11942e7ff1a7de83e586c6bb09d9b4ee.43
00000000 r .Lanon.11942e7ff1a7de83e586c6bb09d9b4ee.44
0000000c r .Lanon.11942e7ff1a7de83e586c6bb09d9b4ee.45
00000000 r .Lanon.11942e7ff1a7de83e586c6bb09d9b4ee.46
00000000 r .Lanon.11942e7ff1a7de83e586c6bb09d9b4ee.47
00000000 r .Lanon.11942e7ff1a7de83e586c6bb09d9b4ee.48
00000000 r .Lanon.11942e7ff1a7de83e586c6bb09d9b4ee.5
00000000 r .Lanon.11942e7ff1a7de83e586c6bb09d9b4ee.6
00000000 r .Lanon.11942e7ff1a7de83e586c6bb09d9b4ee.7
00000000 r .Lanon.11942e7ff1a7de83e586c6bb09d9b4ee.8
00000000 r .Lanon.11942e7ff1a7de83e586c6bb09d9b4ee.9
         U memcpy
         U memset
00000000 r str.0
         U __udivdi3
         U _ZN42_$LT$$RF$T$u20$as$u20$core..fmt..Debug$GT$3fmt17h08b86e23964828d9E
         U _ZN42_$LT$$RF$T$u20$as$u20$core..fmt..Debug$GT$3fmt17h0d0ff7b38ab303f9E
00000000 t _ZN42_$LT$$RF$T$u20$as$u20$core..fmt..Debug$GT$3fmt17hb2da9542d877add5E
00000000 t _ZN42_$LT$$RF$T$u20$as$u20$core..fmt..Debug$GT$3fmt17hb8df28215799b83aE
00000000 t _ZN42_$LT$$RF$T$u20$as$u20$core..fmt..Debug$GT$3fmt17hc95a70e09753469aE
00000000 t _ZN42_$LT$$RF$T$u20$as$u20$core..fmt..Debug$GT$3fmt17hdade0ed1811a0ea7E
00000000 t _ZN42_$LT$$RF$T$u20$as$u20$core..fmt..Debug$GT$3fmt17hfa33ca0ae3886a52E
         U _ZN4core3fmt8builders10DebugTuple5field17hdeeb14ec9411353fE
         U _ZN4core3fmt8builders11DebugStruct5field17haa057cbf88084cceE
         U _ZN4core3num6bignum8Big32x4010mul_digits9mul_inner17h06a74e25549cf110E.llvm.6291908229003587561
         U _ZN4core3num6bignum8Big32x408mul_pow217hb43065941df1350fE
         U _ZN4core3num7flt2dec8round_up17hf48a54762e2e56a4E
00000000 r _ZN4core3num7flt2dec8strategy6dragon10POW10TO12817h507179971c9894c9E
00000000 r _ZN4core3num7flt2dec8strategy6dragon10POW10TO25617h760859979e37ea2aE
00000000 T _ZN4core3num7flt2dec8strategy6dragon12format_exact17hb990c55d1c39d75eE
00000000 T _ZN4core3num7flt2dec8strategy6dragon15format_shortest17h6e930fbe117b2aa6E
00000000 r _ZN4core3num7flt2dec8strategy6dragon5POW1017h6c4ef793a6f5df3fE
00000000 r _ZN4core3num7flt2dec8strategy6dragon8TWOPOW1017h5ef24dce32ee5594E
00000000 T _ZN4core3num7flt2dec8strategy6dragon9mul_pow1017h3c7bc344b9f3d8b8E
00000000 r _ZN4core3num7flt2dec8strategy6dragon9POW10TO1617h81e1ccd03e833f26E
00000000 r _ZN4core3num7flt2dec8strategy6dragon9POW10TO3217ha15ea0e22ff97af2E
00000000 r _ZN4core3num7flt2dec8strategy6dragon9POW10TO6417hc7ebb45cc706558aE
00000000 t _ZN4core3ptr18real_drop_in_place17h11c17aa056d1eb14E
00000000 T _ZN4core4char15CaseMappingIter3new17ha3e269e048c5638cE
         U _ZN4core5slice20slice_index_len_fail17h1de6582f5b25970aE
         U _ZN4core5slice22slice_index_order_fail17h5c97dc70a1ee6408E
         U _ZN4core9panicking18panic_bounds_check17h1fc4ec65e9eda7d0E
         U _ZN4core9panicking5panic17hb5d102504e882c92E
00000000 T _ZN54_$LT$I$u20$as$u20$core..iter..traits..IntoIterator$GT$9into_iter17h60fbed277d0579c9E
00000000 T _ZN60_$LT$core..char..EscapeDebug$u20$as$u20$core..fmt..Debug$GT$3fmt17he129a1d88420e59dE
00000000 T _ZN60_$LT$core..char..ToLowercase$u20$as$u20$core..fmt..Debug$GT$3fmt17hd829115bfda131b2E
00000000 T _ZN60_$LT$core..char..ToUppercase$u20$as$u20$core..fmt..Debug$GT$3fmt17h0aa4962370731480E
00000000 T _ZN62_$LT$core..char..EscapeDebug$u20$as$u20$core..fmt..Display$GT$3fmt17hb7c9f149db711aaeE
00000000 T _ZN62_$LT$core..char..EscapeDefault$u20$as$u20$core..fmt..Debug$GT$3fmt17hc07ca2f092d1fff5E
00000000 T _ZN62_$LT$core..char..EscapeUnicode$u20$as$u20$core..fmt..Debug$GT$3fmt17hc3110f867e791063E
00000000 T _ZN62_$LT$core..char..ToLowercase$u20$as$u20$core..fmt..Display$GT$3fmt17hb50cf9298c0e38bbE
00000000 T _ZN62_$LT$core..char..ToUppercase$u20$as$u20$core..fmt..Display$GT$3fmt17hf68cb424550edc14E
00000000 T _ZN64_$LT$core..char..CaseMappingIter$u20$as$u20$core..fmt..Debug$GT$3fmt17h2159d579b8356502E
00000000 T _ZN64_$LT$core..char..EscapeDefault$u20$as$u20$core..fmt..Display$GT$3fmt17h96f65a25a9255425E
00000000 T _ZN64_$LT$core..char..EscapeUnicode$u20$as$u20$core..fmt..Display$GT$3fmt17h471372d8ba52dfd5E
00000000 T _ZN66_$LT$core..char..CaseMappingIter$u20$as$u20$core..fmt..Display$GT$3fmt17h2f78ce5c263531adE
00000000 T _ZN67_$LT$core..char..EscapeDefaultState$u20$as$u20$core..fmt..Debug$GT$3fmt17hf395572edbdc3532E
00000000 T _ZN67_$LT$core..char..EscapeUnicodeState$u20$as$u20$core..fmt..Debug$GT$3fmt17h06d9469ad46d877fE
00000000 T _ZN74_$LT$core..char..EscapeDebug$u20$as$u20$core..iter..iterator..Iterator$GT$4next17h320453b49efd8c73E
00000000 T _ZN74_$LT$core..char..EscapeDebug$u20$as$u20$core..iter..iterator..Iterator$GT$9size_hint17h44fcc3decbb7db65E
00000000 T _ZN74_$LT$core..char..ToLowercase$u20$as$u20$core..iter..iterator..Iterator$GT$4next17h43ea03c340bc93caE
00000000 T _ZN74_$LT$core..char..ToUppercase$u20$as$u20$core..iter..iterator..Iterator$GT$4next17h1acb6caa4c0488e3E
00000000 T _ZN76_$LT$core..char..EscapeDefault$u20$as$u20$core..iter..iterator..Iterator$GT$3nth17h0c7a3ab79aed9771E
00000000 T _ZN76_$LT$core..char..EscapeDefault$u20$as$u20$core..iter..iterator..Iterator$GT$4last17h3b02d095a09487bbE
00000000 T _ZN76_$LT$core..char..EscapeDefault$u20$as$u20$core..iter..iterator..Iterator$GT$4next17h8b0a6ef2ce7952a8E
00000000 T _ZN76_$LT$core..char..EscapeUnicode$u20$as$u20$core..iter..iterator..Iterator$GT$4last17hedbf02eadd3884eeE
00000000 T _ZN76_$LT$core..char..EscapeUnicode$u20$as$u20$core..iter..iterator..Iterator$GT$4next17hec932d3e99449a18E
00000000 T _ZN78_$LT$core..char..CaseMappingIter$u20$as$u20$core..iter..iterator..Iterator$GT$4next17hcbe36cb5dcec516cE
00000000 T _ZN83_$LT$core..char..EscapeDefault$u20$as$u20$core..iter..traits..ExactSizeIterator$GT$3len17h64a125f62ce3fc31E

core-87b341ced06d2d9e.core.9r1ss7xu-cgu.8.rcgu.o:
         U abort
         U anon.31c391fee95154598eab410655e56dc4.28.llvm.8755331276361445789
         U anon.31c391fee95154598eab410655e56dc4.30.llvm.8755331276361445789
         U anon.31c391fee95154598eab410655e56dc4.33.llvm.8755331276361445789
         U anon.31c391fee95154598eab410655e56dc4.34.llvm.8755331276361445789
         U anon.31c391fee95154598eab410655e56dc4.36.llvm.8755331276361445789
00000000 r .Lanon.46905e34075c16c970eac356869a586e.0
00000000 r .Lanon.46905e34075c16c970eac356869a586e.1
00000000 r .Lanon.46905e34075c16c970eac356869a586e.10
00000000 r .Lanon.46905e34075c16c970eac356869a586e.11
00000000 r .Lanon.46905e34075c16c970eac356869a586e.12
00000000 r .Lanon.46905e34075c16c970eac356869a586e.13
00000000 r .Lanon.46905e34075c16c970eac356869a586e.14
00000000 r .Lanon.46905e34075c16c970eac356869a586e.15
00000000 r .Lanon.46905e34075c16c970eac356869a586e.16
00000000 r .Lanon.46905e34075c16c970eac356869a586e.17
00000000 r .Lanon.46905e34075c16c970eac356869a586e.18
00000000 r .Lanon.46905e34075c16c970eac356869a586e.19
00000000 r .Lanon.46905e34075c16c970eac356869a586e.2
00000000 r .Lanon.46905e34075c16c970eac356869a586e.20
00000000 r .Lanon.46905e34075c16c970eac356869a586e.21
00000000 r .Lanon.46905e34075c16c970eac356869a586e.22
00000000 r .Lanon.46905e34075c16c970eac356869a586e.23
00000000 r .Lanon.46905e34075c16c970eac356869a586e.24
00000000 r .Lanon.46905e34075c16c970eac356869a586e.25
00000008 r .Lanon.46905e34075c16c970eac356869a586e.26
00000000 r .Lanon.46905e34075c16c970eac356869a586e.27
00000010 r .Lanon.46905e34075c16c970eac356869a586e.28
00000000 r .Lanon.46905e34075c16c970eac356869a586e.29
00000000 r .Lanon.46905e34075c16c970eac356869a586e.3
00000000 r .Lanon.46905e34075c16c970eac356869a586e.30
00000000 r .Lanon.46905e34075c16c970eac356869a586e.31
00000000 r .Lanon.46905e34075c16c970eac356869a586e.32
00000000 r .Lanon.46905e34075c16c970eac356869a586e.33
00000000 r .Lanon.46905e34075c16c970eac356869a586e.34
00000000 r .Lanon.46905e34075c16c970eac356869a586e.35
00000000 r .Lanon.46905e34075c16c970eac356869a586e.36
00000000 r .Lanon.46905e34075c16c970eac356869a586e.37
00000000 r .Lanon.46905e34075c16c970eac356869a586e.38
00000000 r .Lanon.46905e34075c16c970eac356869a586e.39
00000000 r .Lanon.46905e34075c16c970eac356869a586e.4
00000000 r .Lanon.46905e34075c16c970eac356869a586e.40
00000004 r .Lanon.46905e34075c16c970eac356869a586e.41
00000000 r .Lanon.46905e34075c16c970eac356869a586e.42
00000008 r .Lanon.46905e34075c16c970eac356869a586e.43
00000000 r .Lanon.46905e34075c16c970eac356869a586e.5
00000000 r .Lanon.46905e34075c16c970eac356869a586e.6
00000000 r .Lanon.46905e34075c16c970eac356869a586e.7
00000000 r .Lanon.46905e34075c16c970eac356869a586e.8
00000000 r .Lanon.46905e34075c16c970eac356869a586e.9
00000000 r str.1
00000000 r str.2
         U __udivdi3
00000000 T _ZN42_$LT$$RF$T$u20$as$u20$core..fmt..Debug$GT$3fmt17h0c39f4d0bcf4a94dE
00000000 T _ZN42_$LT$$RF$T$u20$as$u20$core..fmt..Debug$GT$3fmt17h23ba69ec3d8fcf37E
00000000 T _ZN42_$LT$$RF$T$u20$as$u20$core..fmt..Debug$GT$3fmt17h80b92711378970a0E
         U _ZN42_$LT$$RF$T$u20$as$u20$core..fmt..Debug$GT$3fmt17hacf5a3755c9565c1E
         U _ZN42_$LT$$RF$T$u20$as$u20$core..fmt..Debug$GT$3fmt17hb368d3d16c88e5caE
00000000 t _ZN42_$LT$$RF$T$u20$as$u20$core..fmt..Debug$GT$3fmt17hbca586539e964711E
         U _ZN42_$LT$$RF$T$u20$as$u20$core..fmt..Debug$GT$3fmt17hd676f10250b507c5E
00000000 T _ZN42_$LT$$RF$T$u20$as$u20$core..fmt..Debug$GT$3fmt17hdb228ead75b5b43eE
         U _ZN44_$LT$$RF$T$u20$as$u20$core..fmt..Display$GT$3fmt17h1e371c781fcbf6abE
         U _ZN4core3fmt10ArgumentV110show_usize17hffe0473dd7b3efedE.llvm.17765535580013292967
         U _ZN4core3fmt3num52_$LT$impl$u20$core..fmt..Display$u20$for$u20$u64$GT$3fmt17h51ca19a410295c6aE
00000000 T _ZN4core3fmt5float29float_to_decimal_common_exact17h2cb554924f65e8bdE.llvm.17782236113135433245
00000000 T _ZN4core3fmt5float29float_to_decimal_common_exact17hdfe9b1197da86d27E.llvm.17782236113135433245
00000000 T _ZN4core3fmt5float32float_to_decimal_common_shortest17h30356f2a95593ce0E.llvm.17782236113135433245
00000000 T _ZN4core3fmt5float32float_to_decimal_common_shortest17h929fa6660c5dedb8E.llvm.17782236113135433245
00000000 t _ZN4core3fmt5float33float_to_exponential_common_exact17hb62d997b37d4ad89E
00000000 t _ZN4core3fmt5float33float_to_exponential_common_exact17hd60c5ba0962dee9aE
00000000 t _ZN4core3fmt5float36float_to_exponential_common_shortest17h24757b3e1b1ed6c2E
00000000 t _ZN4core3fmt5float36float_to_exponential_common_shortest17h95fdc0e8488a178bE
00000000 T _ZN4core3fmt5float50_$LT$impl$u20$core..fmt..Debug$u20$for$u20$f32$GT$3fmt17hdbb60ed2de4d8248E
00000000 T _ZN4core3fmt5float50_$LT$impl$u20$core..fmt..Debug$u20$for$u20$f64$GT$3fmt17h539fc5ffbd44be36E
00000000 T _ZN4core3fmt5float52_$LT$impl$u20$core..fmt..Display$u20$for$u20$f32$GT$3fmt17h74aba6c74e5a45b4E
00000000 T _ZN4core3fmt5float52_$LT$impl$u20$core..fmt..Display$u20$for$u20$f64$GT$3fmt17hd7e4f041bbd53c60E
00000000 T _ZN4core3fmt5float53_$LT$impl$u20$core..fmt..LowerExp$u20$for$u20$f32$GT$3fmt17he16a82d19a16314aE
00000000 T _ZN4core3fmt5float53_$LT$impl$u20$core..fmt..LowerExp$u20$for$u20$f64$GT$3fmt17hce5740dc1c05b5ffE
00000000 T _ZN4core3fmt5float53_$LT$impl$u20$core..fmt..UpperExp$u20$for$u20$f32$GT$3fmt17h125fad1ac258a603E
00000000 T _ZN4core3fmt5float53_$LT$impl$u20$core..fmt..UpperExp$u20$for$u20$f64$GT$3fmt17h811a46e8dd910fd3E
         U _ZN4core3fmt5write17h1d5b0e1e227ed20cE
         U _ZN4core3fmt8builders10DebugTuple5field17hdeeb14ec9411353fE
         U _ZN4core3fmt8builders11DebugStruct5field17haa057cbf88084cceE
         U _ZN4core3fmt9Formatter19pad_formatted_parts17h92d93e415ac0d084E
00000000 T _ZN4core3num7dec2flt5parse13parse_decimal17h5d43746bb8f2d8a5E
00000000 T _ZN4core3num7dec2flt5parse7Decimal3new17h2de1df7ccbc011ddE
         U _ZN4core3num7flt2dec15to_shortest_str17hedccd1705c743be5E
         U _ZN4core3num7flt2dec15to_shortest_str17hfdd52535253e2dfcE
         U _ZN4core3num7flt2dec16to_exact_exp_str17h5fc0af256c7398afE
         U _ZN4core3num7flt2dec16to_exact_exp_str17hd20d5eaef9d2e981E
         U _ZN4core3num7flt2dec18to_exact_fixed_str17h9df72e021d55e411E
         U _ZN4core3num7flt2dec18to_exact_fixed_str17hb3b4ced72dcc5ba5E
         U _ZN4core3num7flt2dec19to_shortest_exp_str17h914153d59e81cf63E
         U _ZN4core3num7flt2dec19to_shortest_exp_str17hf2ddfaf723372733E
00000000 t _ZN4core3ptr18real_drop_in_place17h0e6b142ace838c16E
00000000 t _ZN4core3ptr18real_drop_in_place17h3387f60f794f19ebE
00000000 t _ZN4core3ptr18real_drop_in_place17h9b05479b0a872182E
00000000 t _ZN4core3ptr18real_drop_in_place17hc861eb841e13c2cbE
00000000 T _ZN4core4iter8iterator8Iterator3cmp17h21026efca0622ae7E
00000000 T _ZN4core4iter8iterator8Iterator3cmp17hf6db51e636b5cf99E
00000000 T _ZN4core4time83_$LT$impl$u20$core..ops..arith..Mul$LT$core..time..Duration$GT$$u20$for$u20$u32$GT$3mul17h1c79ecaec87a05a8E
         U _ZN4core5slice20slice_index_len_fail17h1de6582f5b25970aE
         U _ZN4core6option13expect_failed17hfb8f1cf1eba149cbE
         U _ZN4core9panicking18panic_bounds_check17h1fc4ec65e9eda7d0E
         U _ZN4core9panicking5panic17hb5d102504e882c92E
00000000 T _ZN54_$LT$I$u20$as$u20$core..iter..traits..IntoIterator$GT$9into_iter17h052f23103d3a3464E
00000000 T _ZN54_$LT$I$u20$as$u20$core..iter..traits..IntoIterator$GT$9into_iter17h284f7033041f4701E
00000000 T _ZN54_$LT$I$u20$as$u20$core..iter..traits..IntoIterator$GT$9into_iter17h3ee6a57c99c5f806E
00000000 T _ZN54_$LT$I$u20$as$u20$core..iter..traits..IntoIterator$GT$9into_iter17h3f2ac8da78fb9318E
00000000 T _ZN54_$LT$I$u20$as$u20$core..iter..traits..IntoIterator$GT$9into_iter17h422f7bdb97be5624E
00000000 T _ZN54_$LT$I$u20$as$u20$core..iter..traits..IntoIterator$GT$9into_iter17h6b88ffacf7370526E
00000000 T _ZN54_$LT$I$u20$as$u20$core..iter..traits..IntoIterator$GT$9into_iter17h70090da1a90a1e6bE
00000000 T _ZN54_$LT$I$u20$as$u20$core..iter..traits..IntoIterator$GT$9into_iter17h8f5e44d25c310d51E
00000000 T _ZN54_$LT$I$u20$as$u20$core..iter..traits..IntoIterator$GT$9into_iter17hb1e5cb49af5ad0efE
00000000 T _ZN54_$LT$I$u20$as$u20$core..iter..traits..IntoIterator$GT$9into_iter17he28d034ca13c6de6E
00000000 T _ZN54_$LT$I$u20$as$u20$core..iter..traits..IntoIterator$GT$9into_iter17he64730125cb2caf6E
00000000 T _ZN54_$LT$I$u20$as$u20$core..iter..traits..IntoIterator$GT$9into_iter17hed99652fe1c86f44E
00000000 t _ZN57_$LT$core..time..Duration$u20$as$u20$core..fmt..Debug$GT$3fmt11fmt_decimal17he905d06fe35ad110E
00000000 T _ZN57_$LT$core..time..Duration$u20$as$u20$core..fmt..Debug$GT$3fmt17ha9e7f1b3c875e648E
00000000 T _ZN59_$LT$core..iter..ChainState$u20$as$u20$core..fmt..Debug$GT$3fmt17h5dffda478c5735a3E
00000000 T _ZN62_$LT$core..time..Duration$u20$as$u20$core..ops..arith..Add$GT$3add17h690211af40e0e70eE
00000000 T _ZN62_$LT$core..time..Duration$u20$as$u20$core..ops..arith..Sub$GT$3sub17h8d66818d7aa6e4c7E
00000000 T _ZN68_$LT$core..num..dec2flt..parse..Sign$u20$as$u20$core..fmt..Debug$GT$3fmt17ha71f3ac10ae6be36E
00000000 T _ZN68_$LT$core..time..Duration$u20$as$u20$core..ops..arith..AddAssign$GT$10add_assign17hbef170a3e14379e2E
00000000 T _ZN68_$LT$core..time..Duration$u20$as$u20$core..ops..arith..SubAssign$GT$10sub_assign17h3435d362e610f581E
00000000 t _ZN73_$LT$core..iter..Filter$LT$I$C$$u20$P$GT$$u20$as$u20$core..fmt..Debug$GT$3fmt17ha605b644197f1311E
00000000 T _ZN73_$LT$core..time..Duration$u20$as$u20$core..ops..arith..Div$LT$u32$GT$$GT$3div17h89e461fca2e5b5dfE
00000000 T _ZN73_$LT$core..time..Duration$u20$as$u20$core..ops..arith..Mul$LT$u32$GT$$GT$3mul17h4cfee72e13aeb607E
00000000 T _ZN75_$LT$core..iter..Rev$LT$I$GT$$u20$as$u20$core..iter..iterator..Iterator$GT$8try_fold17h3313f96dedff1108E
00000000 T _ZN75_$LT$core..iter..Rev$LT$I$GT$$u20$as$u20$core..iter..iterator..Iterator$GT$8try_fold17h3d24ec21f712f691E
         U _ZN76_$LT$core..str..Split$LT$$u27$a$C$$u20$P$GT$$u20$as$u20$core..fmt..Debug$GT$3fmt17h60a5a1af3dfea9ecE
00000000 T _ZN78_$LT$core..iter..Cloned$LT$I$GT$$u20$as$u20$core..iter..iterator..Iterator$GT$4next17h50667f57ac54db03E
00000000 T _ZN79_$LT$core..time..Duration$u20$as$u20$core..ops..arith..DivAssign$LT$u32$GT$$GT$10div_assign17hf7ba1a86a16c0069E
00000000 T _ZN79_$LT$core..time..Duration$u20$as$u20$core..ops..arith..MulAssign$LT$u32$GT$$GT$10mul_assign17hc498ed1900e8072dE
00000000 T _ZN85_$LT$core..num..dec2flt..parse..Decimal$LT$$u27$a$GT$$u20$as$u20$core..fmt..Debug$GT$3fmt17h60e59fa245486e77E
         U _ZN86_$LT$core..str..SplitTerminator$LT$$u27$a$C$$u20$P$GT$$u20$as$u20$core..fmt..Debug$GT$3fmt17h3b5eac4edc35e803E
00000000 T _ZN87_$LT$core..iter..Cloned$LT$I$GT$$u20$as$u20$core..iter_private..TrustedRandomAccess$GT$13get_unchecked17h2604b30121a35e85E
         U _ZN87_$LT$core..slice..Split$LT$$u27$_$C$$u20$T$C$$u20$P$GT$$u20$as$u20$core..fmt..Debug$GT$3fmt17h3ac002890ba41c86E
00000000 T _ZN89_$LT$core..num..dec2flt..parse..ParseResult$LT$$u27$a$GT$$u20$as$u20$core..fmt..Debug$GT$3fmt17haefee533951ce458E
00000000 T _ZN91_$LT$core..iter..Zip$LT$A$C$$u20$B$GT$$u20$as$u20$core..iter..ZipImpl$LT$A$C$$u20$B$GT$$GT$3new17h0b06cdf7267c17f8E
00000000 T _ZN91_$LT$core..iter..Zip$LT$A$C$$u20$B$GT$$u20$as$u20$core..iter..ZipImpl$LT$A$C$$u20$B$GT$$GT$3new17h40bd2b077def6ee8E
00000000 T _ZN91_$LT$core..iter..Zip$LT$A$C$$u20$B$GT$$u20$as$u20$core..iter..ZipImpl$LT$A$C$$u20$B$GT$$GT$3new17h97f0f79dd9bf1486E
00000000 T _ZN91_$LT$core..iter..Zip$LT$A$C$$u20$B$GT$$u20$as$u20$core..iter..ZipImpl$LT$A$C$$u20$B$GT$$GT$3new17hfbac9e7fdf30348bE

core-87b341ced06d2d9e.core.9r1ss7xu-cgu.9.rcgu.o:
         U abort
00000000 r .Lanon.73ecd3f297c94fabc523ac1953cbb007.0
00000000 r .Lanon.73ecd3f297c94fabc523ac1953cbb007.1
00000000 r .Lanon.73ecd3f297c94fabc523ac1953cbb007.10
00000000 r .Lanon.73ecd3f297c94fabc523ac1953cbb007.11
00000000 r .Lanon.73ecd3f297c94fabc523ac1953cbb007.12
00000000 r .Lanon.73ecd3f297c94fabc523ac1953cbb007.13
00000000 r .Lanon.73ecd3f297c94fabc523ac1953cbb007.14
00000000 r .Lanon.73ecd3f297c94fabc523ac1953cbb007.15
00000000 r .Lanon.73ecd3f297c94fabc523ac1953cbb007.16
00000000 r .Lanon.73ecd3f297c94fabc523ac1953cbb007.17
00000000 r .Lanon.73ecd3f297c94fabc523ac1953cbb007.18
00000000 r .Lanon.73ecd3f297c94fabc523ac1953cbb007.19
00000000 r .Lanon.73ecd3f297c94fabc523ac1953cbb007.2
00000000 r .Lanon.73ecd3f297c94fabc523ac1953cbb007.20
00000000 r .Lanon.73ecd3f297c94fabc523ac1953cbb007.21
00000000 r .Lanon.73ecd3f297c94fabc523ac1953cbb007.22
00000000 r .Lanon.73ecd3f297c94fabc523ac1953cbb007.23
00000000 r .Lanon.73ecd3f297c94fabc523ac1953cbb007.24
00000000 r .Lanon.73ecd3f297c94fabc523ac1953cbb007.25
00000000 r .Lanon.73ecd3f297c94fabc523ac1953cbb007.26
00000000 r .Lanon.73ecd3f297c94fabc523ac1953cbb007.27
00000000 r .Lanon.73ecd3f297c94fabc523ac1953cbb007.28
00000000 r .Lanon.73ecd3f297c94fabc523ac1953cbb007.29
00000000 r .Lanon.73ecd3f297c94fabc523ac1953cbb007.3
00000000 r .Lanon.73ecd3f297c94fabc523ac1953cbb007.4
00000000 r .Lanon.73ecd3f297c94fabc523ac1953cbb007.5
00000000 r .Lanon.73ecd3f297c94fabc523ac1953cbb007.6
00000000 r .Lanon.73ecd3f297c94fabc523ac1953cbb007.7
00000000 r .Lanon.73ecd3f297c94fabc523ac1953cbb007.8
00000000 r .Lanon.73ecd3f297c94fabc523ac1953cbb007.9
         U memcmp
00000000 r str.0
         U _ZN4core3fmt10ArgumentV110show_usize17hffe0473dd7b3efedE.llvm.17765535580013292967
         U _ZN4core3fmt3num52_$LT$impl$u20$core..fmt..LowerHex$u20$for$u20$u8$GT$3fmt17h561ac22e2444de11E
         U _ZN4core3fmt5write17h1d5b0e1e227ed20cE
00000000 T _ZN4core3num6bignum5tests6Big8x310bit_length17h048c341d85e3f1cbE
00000000 T _ZN4core3num6bignum5tests6Big8x310from_small17hda6b982ff33370a0E
00000000 T _ZN4core3num6bignum5tests6Big8x310mul_digits17h75c26de0b62b7453E
00000000 T _ZN4core3num6bignum5tests6Big8x313div_rem_small17h917b7e22f1447d9cE
00000000 T _ZN4core3num6bignum5tests6Big8x33add17h190d6c0f1642f260E
00000000 T _ZN4core3num6bignum5tests6Big8x33sub17he6b220c6e656137fE
00000000 T _ZN4core3num6bignum5tests6Big8x36digits17hee4663f2d379a41fE
00000000 T _ZN4core3num6bignum5tests6Big8x37div_rem17h29d2ba9942384e2bE
00000000 T _ZN4core3num6bignum5tests6Big8x37get_bit17h3255d835db2ef112E
00000000 T _ZN4core3num6bignum5tests6Big8x37is_zero17h54babdc9831b7927E
00000000 T _ZN4core3num6bignum5tests6Big8x38from_u6417h92d48085c5f96da0E
00000000 T _ZN4core3num6bignum5tests6Big8x38mul_pow217hfae11f3936bd6ea6E
00000000 T _ZN4core3num6bignum5tests6Big8x38mul_pow517h64d974cd133b8f01E
00000000 T _ZN4core3num6bignum5tests6Big8x39add_small17h0c9a308b6cee044aE
00000000 T _ZN4core3num6bignum5tests6Big8x39mul_small17h5124c49430df7e86E
         U _ZN4core5slice20slice_index_len_fail17h1de6582f5b25970aE
         U _ZN4core9panicking18panic_bounds_check17h1fc4ec65e9eda7d0E
         U _ZN4core9panicking5panic17hb5d102504e882c92E
00000000 T _ZN67_$LT$core..num..bignum..tests..Big8x3$u20$as$u20$core..cmp..Ord$GT$3cmp17h8a3fd3961519a334E
00000000 T _ZN69_$LT$core..num..bignum..tests..Big8x3$u20$as$u20$core..fmt..Debug$GT$3fmt17hdd649c863895bc67E
00000000 T _ZN71_$LT$core..num..bignum..tests..Big8x3$u20$as$u20$core..clone..Clone$GT$5clone17hf25dd78ddda8555fE
00000000 T _ZN73_$LT$core..num..bignum..tests..Big8x3$u20$as$u20$core..cmp..PartialEq$GT$2eq17h5167225b936451cbE
00000000 T _ZN74_$LT$core..num..bignum..tests..Big8x3$u20$as$u20$core..cmp..PartialOrd$GT$11partial_cmp17h20e02506b31e6f2dE
